ARM GAS  /tmp/ccIB1023.s 			page 1


   1              		.cpu cortex-m3
   2              		.eabi_attribute 20, 1
   3              		.eabi_attribute 21, 1
   4              		.eabi_attribute 23, 3
   5              		.eabi_attribute 24, 1
   6              		.eabi_attribute 25, 1
   7              		.eabi_attribute 26, 1
   8              		.eabi_attribute 30, 1
   9              		.eabi_attribute 34, 1
  10              		.eabi_attribute 18, 4
  11              		.file	"usb_core.c"
  12              		.text
  13              	.Ltext0:
  14              		.cfi_sections	.debug_frame
  15              		.section	.text.Standard_GetConfiguration,"ax",%progbits
  16              		.align	1
  17              		.global	Standard_GetConfiguration
  18              		.arch armv7-m
  19              		.syntax unified
  20              		.thumb
  21              		.thumb_func
  22              		.fpu softvfp
  24              	Standard_GetConfiguration:
  25              	.LVL0:
  26              	.LFB56:
  27              		.file 1 "usb_driver/Src/usb_core.c"
   1:usb_driver/Src/usb_core.c **** /**
   2:usb_driver/Src/usb_core.c ****   ******************************************************************************
   3:usb_driver/Src/usb_core.c ****   * @file    usb_core.c
   4:usb_driver/Src/usb_core.c ****   * @author  MCD Application Team
   5:usb_driver/Src/usb_core.c ****   * @version V4.0.0
   6:usb_driver/Src/usb_core.c ****   * @date    28-August-2012
   7:usb_driver/Src/usb_core.c ****   * @brief   Standard protocol processing (USB v2.0)
   8:usb_driver/Src/usb_core.c ****   ******************************************************************************
   9:usb_driver/Src/usb_core.c ****   * @attention
  10:usb_driver/Src/usb_core.c ****   *
  11:usb_driver/Src/usb_core.c ****   * <h2><center>&copy; COPYRIGHT 2012 STMicroelectronics</center></h2>
  12:usb_driver/Src/usb_core.c ****   *
  13:usb_driver/Src/usb_core.c ****   * Licensed under MCD-ST Liberty SW License Agreement V2, (the "License");
  14:usb_driver/Src/usb_core.c ****   * You may not use this file except in compliance with the License.
  15:usb_driver/Src/usb_core.c ****   * You may obtain a copy of the License at:
  16:usb_driver/Src/usb_core.c ****   *
  17:usb_driver/Src/usb_core.c ****   *        http://www.st.com/software_license_agreement_liberty_v2
  18:usb_driver/Src/usb_core.c ****   *
  19:usb_driver/Src/usb_core.c ****   * Unless required by applicable law or agreed to in writing, software 
  20:usb_driver/Src/usb_core.c ****   * distributed under the License is distributed on an "AS IS" BASIS, 
  21:usb_driver/Src/usb_core.c ****   * WITHOUT WARRANTIES OR CONDITIONS OF ANY KIND, either express or implied.
  22:usb_driver/Src/usb_core.c ****   * See the License for the specific language governing permissions and
  23:usb_driver/Src/usb_core.c ****   * limitations under the License.
  24:usb_driver/Src/usb_core.c ****   *
  25:usb_driver/Src/usb_core.c ****   ******************************************************************************
  26:usb_driver/Src/usb_core.c ****   */
  27:usb_driver/Src/usb_core.c **** 
  28:usb_driver/Src/usb_core.c **** 
  29:usb_driver/Src/usb_core.c **** /* Includes ------------------------------------------------------------------*/
  30:usb_driver/Src/usb_core.c **** #include "usb_lib.h"
  31:usb_driver/Src/usb_core.c **** /* Private typedef -----------------------------------------------------------*/
ARM GAS  /tmp/ccIB1023.s 			page 2


  32:usb_driver/Src/usb_core.c **** /* Private define ------------------------------------------------------------*/
  33:usb_driver/Src/usb_core.c **** #define ValBit(VAR,Place)    (VAR & (1 << Place))
  34:usb_driver/Src/usb_core.c **** #define SetBit(VAR,Place)    (VAR |= (1 << Place))
  35:usb_driver/Src/usb_core.c **** #define ClrBit(VAR,Place)    (VAR &= ((1 << Place) ^ 255))
  36:usb_driver/Src/usb_core.c **** #define Send0LengthData() { _SetEPTxCount(ENDP0, 0); \
  37:usb_driver/Src/usb_core.c ****     vSetEPTxStatus(EP_TX_VALID); \
  38:usb_driver/Src/usb_core.c ****   }
  39:usb_driver/Src/usb_core.c **** 
  40:usb_driver/Src/usb_core.c **** #define vSetEPRxStatus(st) (SaveRState = st)
  41:usb_driver/Src/usb_core.c **** #define vSetEPTxStatus(st) (SaveTState = st)
  42:usb_driver/Src/usb_core.c **** 
  43:usb_driver/Src/usb_core.c **** #define USB_StatusIn() Send0LengthData()
  44:usb_driver/Src/usb_core.c **** #define USB_StatusOut() vSetEPRxStatus(EP_RX_VALID)
  45:usb_driver/Src/usb_core.c **** 
  46:usb_driver/Src/usb_core.c **** #define StatusInfo0 StatusInfo.bw.bb1 /* Reverse bb0 & bb1 */
  47:usb_driver/Src/usb_core.c **** #define StatusInfo1 StatusInfo.bw.bb0
  48:usb_driver/Src/usb_core.c **** 
  49:usb_driver/Src/usb_core.c **** /* Private macro -------------------------------------------------------------*/
  50:usb_driver/Src/usb_core.c **** /* Private variables ---------------------------------------------------------*/
  51:usb_driver/Src/usb_core.c **** uint16_t_uint8_t StatusInfo;
  52:usb_driver/Src/usb_core.c **** 
  53:usb_driver/Src/usb_core.c **** bool Data_Mul_MaxPacketSize = FALSE;
  54:usb_driver/Src/usb_core.c **** /* Private function prototypes -----------------------------------------------*/
  55:usb_driver/Src/usb_core.c **** static void DataStageOut(void);
  56:usb_driver/Src/usb_core.c **** static void DataStageIn(void);
  57:usb_driver/Src/usb_core.c **** static void NoData_Setup0(void);
  58:usb_driver/Src/usb_core.c **** static void Data_Setup0(void);
  59:usb_driver/Src/usb_core.c **** /* Private functions ---------------------------------------------------------*/
  60:usb_driver/Src/usb_core.c **** 
  61:usb_driver/Src/usb_core.c **** /*******************************************************************************
  62:usb_driver/Src/usb_core.c **** * Function Name  : Standard_GetConfiguration.
  63:usb_driver/Src/usb_core.c **** * Description    : Return the current configuration variable address.
  64:usb_driver/Src/usb_core.c **** * Input          : Length - How many bytes are needed.
  65:usb_driver/Src/usb_core.c **** * Output         : None.
  66:usb_driver/Src/usb_core.c **** * Return         : Return 1 , if the request is invalid when "Length" is 0.
  67:usb_driver/Src/usb_core.c **** *                  Return "Buffer" if the "Length" is not 0.
  68:usb_driver/Src/usb_core.c **** *******************************************************************************/
  69:usb_driver/Src/usb_core.c **** uint8_t *Standard_GetConfiguration(uint16_t Length)
  70:usb_driver/Src/usb_core.c **** {
  28              		.loc 1 70 1 view -0
  29              		.cfi_startproc
  30              		@ args = 0, pretend = 0, frame = 0
  31              		@ frame_needed = 0, uses_anonymous_args = 0
  32              		.loc 1 70 1 is_stmt 0 view .LVU1
  33 0000 08B5     		push	{r3, lr}
  34              	.LCFI0:
  35              		.cfi_def_cfa_offset 8
  36              		.cfi_offset 3, -8
  37              		.cfi_offset 14, -4
  71:usb_driver/Src/usb_core.c ****   if (Length == 0)
  38              		.loc 1 71 3 is_stmt 1 view .LVU2
  39              		.loc 1 71 6 is_stmt 0 view .LVU3
  40 0002 38B1     		cbz	r0, .L5
  72:usb_driver/Src/usb_core.c ****   {
  73:usb_driver/Src/usb_core.c ****     pInformation->Ctrl_Info.Usb_wLength =
  74:usb_driver/Src/usb_core.c ****       sizeof(pInformation->Current_Configuration);
  75:usb_driver/Src/usb_core.c ****     return 0;
ARM GAS  /tmp/ccIB1023.s 			page 3


  76:usb_driver/Src/usb_core.c ****   }
  77:usb_driver/Src/usb_core.c ****   pUser_Standard_Requests->User_GetConfiguration();
  41              		.loc 1 77 3 is_stmt 1 view .LVU4
  42              		.loc 1 77 26 is_stmt 0 view .LVU5
  43 0004 064B     		ldr	r3, .L6
  44 0006 1B68     		ldr	r3, [r3]
  45 0008 1B68     		ldr	r3, [r3]
  46              		.loc 1 77 3 view .LVU6
  47 000a 9847     		blx	r3
  48              	.LVL1:
  78:usb_driver/Src/usb_core.c ****   return (uint8_t *)&pInformation->Current_Configuration;
  49              		.loc 1 78 3 is_stmt 1 view .LVU7
  50              		.loc 1 78 34 is_stmt 0 view .LVU8
  51 000c 054B     		ldr	r3, .L6+4
  52 000e 1868     		ldr	r0, [r3]
  53              		.loc 1 78 10 view .LVU9
  54 0010 0A30     		adds	r0, r0, #10
  55              	.L1:
  79:usb_driver/Src/usb_core.c **** }
  56              		.loc 1 79 1 view .LVU10
  57 0012 08BD     		pop	{r3, pc}
  58              	.LVL2:
  59              	.L5:
  73:usb_driver/Src/usb_core.c ****       sizeof(pInformation->Current_Configuration);
  60              		.loc 1 73 5 is_stmt 1 view .LVU11
  73:usb_driver/Src/usb_core.c ****       sizeof(pInformation->Current_Configuration);
  61              		.loc 1 73 17 is_stmt 0 view .LVU12
  62 0014 034B     		ldr	r3, .L6+4
  63 0016 1B68     		ldr	r3, [r3]
  73:usb_driver/Src/usb_core.c ****       sizeof(pInformation->Current_Configuration);
  64              		.loc 1 73 41 view .LVU13
  65 0018 0122     		movs	r2, #1
  66 001a 1A82     		strh	r2, [r3, #16]	@ movhi
  75:usb_driver/Src/usb_core.c ****   }
  67              		.loc 1 75 5 is_stmt 1 view .LVU14
  75:usb_driver/Src/usb_core.c ****   }
  68              		.loc 1 75 12 is_stmt 0 view .LVU15
  69 001c F9E7     		b	.L1
  70              	.L7:
  71 001e 00BF     		.align	2
  72              	.L6:
  73 0020 00000000 		.word	pUser_Standard_Requests
  74 0024 00000000 		.word	pInformation
  75              		.cfi_endproc
  76              	.LFE56:
  78              		.section	.text.Standard_GetInterface,"ax",%progbits
  79              		.align	1
  80              		.global	Standard_GetInterface
  81              		.syntax unified
  82              		.thumb
  83              		.thumb_func
  84              		.fpu softvfp
  86              	Standard_GetInterface:
  87              	.LVL3:
  88              	.LFB58:
  80:usb_driver/Src/usb_core.c **** 
  81:usb_driver/Src/usb_core.c **** /*******************************************************************************
ARM GAS  /tmp/ccIB1023.s 			page 4


  82:usb_driver/Src/usb_core.c **** * Function Name  : Standard_SetConfiguration.
  83:usb_driver/Src/usb_core.c **** * Description    : This routine is called to set the configuration value
  84:usb_driver/Src/usb_core.c **** *                  Then each class should configure device itself.
  85:usb_driver/Src/usb_core.c **** * Input          : None.
  86:usb_driver/Src/usb_core.c **** * Output         : None.
  87:usb_driver/Src/usb_core.c **** * Return         : Return USB_SUCCESS, if the request is performed.
  88:usb_driver/Src/usb_core.c **** *                  Return USB_UNSUPPORT, if the request is invalid.
  89:usb_driver/Src/usb_core.c **** *******************************************************************************/
  90:usb_driver/Src/usb_core.c **** RESULT Standard_SetConfiguration(void)
  91:usb_driver/Src/usb_core.c **** {
  92:usb_driver/Src/usb_core.c **** 
  93:usb_driver/Src/usb_core.c ****   if ((pInformation->USBwValue0 <=
  94:usb_driver/Src/usb_core.c ****       Device_Table.Total_Configuration) && (pInformation->USBwValue1 == 0)
  95:usb_driver/Src/usb_core.c ****       && (pInformation->USBwIndex == 0)) /*call Back usb spec 2.0*/
  96:usb_driver/Src/usb_core.c ****   {
  97:usb_driver/Src/usb_core.c ****     pInformation->Current_Configuration = pInformation->USBwValue0;
  98:usb_driver/Src/usb_core.c ****     pUser_Standard_Requests->User_SetConfiguration();
  99:usb_driver/Src/usb_core.c ****     return USB_SUCCESS;
 100:usb_driver/Src/usb_core.c ****   }
 101:usb_driver/Src/usb_core.c ****   else
 102:usb_driver/Src/usb_core.c ****   {
 103:usb_driver/Src/usb_core.c ****     return USB_UNSUPPORT;
 104:usb_driver/Src/usb_core.c ****   }
 105:usb_driver/Src/usb_core.c **** }
 106:usb_driver/Src/usb_core.c **** 
 107:usb_driver/Src/usb_core.c **** /*******************************************************************************
 108:usb_driver/Src/usb_core.c **** * Function Name  : Standard_GetInterface.
 109:usb_driver/Src/usb_core.c **** * Description    : Return the Alternate Setting of the current interface.
 110:usb_driver/Src/usb_core.c **** * Input          : Length - How many bytes are needed.
 111:usb_driver/Src/usb_core.c **** * Output         : None.
 112:usb_driver/Src/usb_core.c **** * Return         : Return 0, if the request is invalid when "Length" is 0.
 113:usb_driver/Src/usb_core.c **** *                  Return "Buffer" if the "Length" is not 0.
 114:usb_driver/Src/usb_core.c **** *******************************************************************************/
 115:usb_driver/Src/usb_core.c **** uint8_t *Standard_GetInterface(uint16_t Length)
 116:usb_driver/Src/usb_core.c **** {
  89              		.loc 1 116 1 is_stmt 1 view -0
  90              		.cfi_startproc
  91              		@ args = 0, pretend = 0, frame = 0
  92              		@ frame_needed = 0, uses_anonymous_args = 0
  93              		.loc 1 116 1 is_stmt 0 view .LVU17
  94 0000 08B5     		push	{r3, lr}
  95              	.LCFI1:
  96              		.cfi_def_cfa_offset 8
  97              		.cfi_offset 3, -8
  98              		.cfi_offset 14, -4
 117:usb_driver/Src/usb_core.c ****   if (Length == 0)
  99              		.loc 1 117 3 is_stmt 1 view .LVU18
 100              		.loc 1 117 6 is_stmt 0 view .LVU19
 101 0002 38B1     		cbz	r0, .L12
 118:usb_driver/Src/usb_core.c ****   {
 119:usb_driver/Src/usb_core.c ****     pInformation->Ctrl_Info.Usb_wLength =
 120:usb_driver/Src/usb_core.c ****       sizeof(pInformation->Current_AlternateSetting);
 121:usb_driver/Src/usb_core.c ****     return 0;
 122:usb_driver/Src/usb_core.c ****   }
 123:usb_driver/Src/usb_core.c ****   pUser_Standard_Requests->User_GetInterface();
 102              		.loc 1 123 3 is_stmt 1 view .LVU20
 103              		.loc 1 123 26 is_stmt 0 view .LVU21
ARM GAS  /tmp/ccIB1023.s 			page 5


 104 0004 064B     		ldr	r3, .L13
 105 0006 1B68     		ldr	r3, [r3]
 106 0008 9B68     		ldr	r3, [r3, #8]
 107              		.loc 1 123 3 view .LVU22
 108 000a 9847     		blx	r3
 109              	.LVL4:
 124:usb_driver/Src/usb_core.c ****   return (uint8_t *)&pInformation->Current_AlternateSetting;
 110              		.loc 1 124 3 is_stmt 1 view .LVU23
 111              		.loc 1 124 34 is_stmt 0 view .LVU24
 112 000c 054B     		ldr	r3, .L13+4
 113 000e 1868     		ldr	r0, [r3]
 114              		.loc 1 124 10 view .LVU25
 115 0010 0C30     		adds	r0, r0, #12
 116              	.L8:
 125:usb_driver/Src/usb_core.c **** }
 117              		.loc 1 125 1 view .LVU26
 118 0012 08BD     		pop	{r3, pc}
 119              	.LVL5:
 120              	.L12:
 119:usb_driver/Src/usb_core.c ****       sizeof(pInformation->Current_AlternateSetting);
 121              		.loc 1 119 5 is_stmt 1 view .LVU27
 119:usb_driver/Src/usb_core.c ****       sizeof(pInformation->Current_AlternateSetting);
 122              		.loc 1 119 17 is_stmt 0 view .LVU28
 123 0014 034B     		ldr	r3, .L13+4
 124 0016 1B68     		ldr	r3, [r3]
 119:usb_driver/Src/usb_core.c ****       sizeof(pInformation->Current_AlternateSetting);
 125              		.loc 1 119 41 view .LVU29
 126 0018 0122     		movs	r2, #1
 127 001a 1A82     		strh	r2, [r3, #16]	@ movhi
 121:usb_driver/Src/usb_core.c ****   }
 128              		.loc 1 121 5 is_stmt 1 view .LVU30
 121:usb_driver/Src/usb_core.c ****   }
 129              		.loc 1 121 12 is_stmt 0 view .LVU31
 130 001c F9E7     		b	.L8
 131              	.L14:
 132 001e 00BF     		.align	2
 133              	.L13:
 134 0020 00000000 		.word	pUser_Standard_Requests
 135 0024 00000000 		.word	pInformation
 136              		.cfi_endproc
 137              	.LFE58:
 139              		.section	.text.Standard_GetStatus,"ax",%progbits
 140              		.align	1
 141              		.global	Standard_GetStatus
 142              		.syntax unified
 143              		.thumb
 144              		.thumb_func
 145              		.fpu softvfp
 147              	Standard_GetStatus:
 148              	.LVL6:
 149              	.LFB60:
 126:usb_driver/Src/usb_core.c **** 
 127:usb_driver/Src/usb_core.c **** /*******************************************************************************
 128:usb_driver/Src/usb_core.c **** * Function Name  : Standard_SetInterface.
 129:usb_driver/Src/usb_core.c **** * Description    : This routine is called to set the interface.
 130:usb_driver/Src/usb_core.c **** *                  Then each class should configure the interface them self.
 131:usb_driver/Src/usb_core.c **** * Input          : None.
ARM GAS  /tmp/ccIB1023.s 			page 6


 132:usb_driver/Src/usb_core.c **** * Output         : None.
 133:usb_driver/Src/usb_core.c **** * Return         : - Return USB_SUCCESS, if the request is performed.
 134:usb_driver/Src/usb_core.c **** *                  - Return USB_UNSUPPORT, if the request is invalid.
 135:usb_driver/Src/usb_core.c **** *******************************************************************************/
 136:usb_driver/Src/usb_core.c **** RESULT Standard_SetInterface(void)
 137:usb_driver/Src/usb_core.c **** {
 138:usb_driver/Src/usb_core.c ****   RESULT Re;
 139:usb_driver/Src/usb_core.c ****   /*Test if the specified Interface and Alternate Setting are supported by
 140:usb_driver/Src/usb_core.c ****     the application Firmware*/
 141:usb_driver/Src/usb_core.c ****   Re = (*pProperty->Class_Get_Interface_Setting)(pInformation->USBwIndex0, pInformation->USBwValue0
 142:usb_driver/Src/usb_core.c **** 
 143:usb_driver/Src/usb_core.c ****   if (pInformation->Current_Configuration != 0)
 144:usb_driver/Src/usb_core.c ****   {
 145:usb_driver/Src/usb_core.c ****     if ((Re != USB_SUCCESS) || (pInformation->USBwIndex1 != 0)
 146:usb_driver/Src/usb_core.c ****         || (pInformation->USBwValue1 != 0))
 147:usb_driver/Src/usb_core.c ****     {
 148:usb_driver/Src/usb_core.c ****       return  USB_UNSUPPORT;
 149:usb_driver/Src/usb_core.c ****     }
 150:usb_driver/Src/usb_core.c ****     else if (Re == USB_SUCCESS)
 151:usb_driver/Src/usb_core.c ****     {
 152:usb_driver/Src/usb_core.c ****       pUser_Standard_Requests->User_SetInterface();
 153:usb_driver/Src/usb_core.c ****       pInformation->Current_Interface = pInformation->USBwIndex0;
 154:usb_driver/Src/usb_core.c ****       pInformation->Current_AlternateSetting = pInformation->USBwValue0;
 155:usb_driver/Src/usb_core.c ****       return USB_SUCCESS;
 156:usb_driver/Src/usb_core.c ****     }
 157:usb_driver/Src/usb_core.c **** 
 158:usb_driver/Src/usb_core.c ****   }
 159:usb_driver/Src/usb_core.c **** 
 160:usb_driver/Src/usb_core.c ****   return USB_UNSUPPORT;
 161:usb_driver/Src/usb_core.c **** }
 162:usb_driver/Src/usb_core.c **** 
 163:usb_driver/Src/usb_core.c **** /*******************************************************************************
 164:usb_driver/Src/usb_core.c **** * Function Name  : Standard_GetStatus.
 165:usb_driver/Src/usb_core.c **** * Description    : Copy the device request data to "StatusInfo buffer".
 166:usb_driver/Src/usb_core.c **** * Input          : - Length - How many bytes are needed.
 167:usb_driver/Src/usb_core.c **** * Output         : None.
 168:usb_driver/Src/usb_core.c **** * Return         : Return 0, if the request is at end of data block,
 169:usb_driver/Src/usb_core.c **** *                  or is invalid when "Length" is 0.
 170:usb_driver/Src/usb_core.c **** *******************************************************************************/
 171:usb_driver/Src/usb_core.c **** uint8_t *Standard_GetStatus(uint16_t Length)
 172:usb_driver/Src/usb_core.c **** {
 150              		.loc 1 172 1 is_stmt 1 view -0
 151              		.cfi_startproc
 152              		@ args = 0, pretend = 0, frame = 0
 153              		@ frame_needed = 0, uses_anonymous_args = 0
 154              		.loc 1 172 1 is_stmt 0 view .LVU33
 155 0000 08B5     		push	{r3, lr}
 156              	.LCFI2:
 157              		.cfi_def_cfa_offset 8
 158              		.cfi_offset 3, -8
 159              		.cfi_offset 14, -4
 173:usb_driver/Src/usb_core.c ****   if (Length == 0)
 160              		.loc 1 173 3 is_stmt 1 view .LVU34
 161              		.loc 1 173 6 is_stmt 0 view .LVU35
 162 0002 E8B1     		cbz	r0, .L26
 174:usb_driver/Src/usb_core.c ****   {
 175:usb_driver/Src/usb_core.c ****     pInformation->Ctrl_Info.Usb_wLength = 2;
ARM GAS  /tmp/ccIB1023.s 			page 7


 176:usb_driver/Src/usb_core.c ****     return 0;
 177:usb_driver/Src/usb_core.c ****   }
 178:usb_driver/Src/usb_core.c **** 
 179:usb_driver/Src/usb_core.c ****   /* Reset Status Information */
 180:usb_driver/Src/usb_core.c ****   StatusInfo.w = 0;
 163              		.loc 1 180 3 is_stmt 1 view .LVU36
 164              		.loc 1 180 16 is_stmt 0 view .LVU37
 165 0004 294B     		ldr	r3, .L28
 166 0006 0022     		movs	r2, #0
 167 0008 1A80     		strh	r2, [r3]	@ movhi
 181:usb_driver/Src/usb_core.c **** 
 182:usb_driver/Src/usb_core.c ****   if (Type_Recipient == (STANDARD_REQUEST | DEVICE_RECIPIENT))
 168              		.loc 1 182 3 is_stmt 1 view .LVU38
 169              		.loc 1 182 7 is_stmt 0 view .LVU39
 170 000a 294B     		ldr	r3, .L28+4
 171 000c 1A68     		ldr	r2, [r3]
 172 000e 1378     		ldrb	r3, [r2]	@ zero_extendqisi2
 173              		.loc 1 182 6 view .LVU40
 174 0010 13F07F03 		ands	r3, r3, #127
 175 0014 1FD1     		bne	.L18
 176              	.LBB2:
 183:usb_driver/Src/usb_core.c ****   {
 184:usb_driver/Src/usb_core.c ****     /*Get Device Status */
 185:usb_driver/Src/usb_core.c ****     uint8_t Feature = pInformation->Current_Feature;
 177              		.loc 1 185 5 is_stmt 1 view .LVU41
 178              		.loc 1 185 13 is_stmt 0 view .LVU42
 179 0016 537A     		ldrb	r3, [r2, #9]	@ zero_extendqisi2
 180              	.LVL7:
 186:usb_driver/Src/usb_core.c **** 
 187:usb_driver/Src/usb_core.c ****     /* Remote Wakeup enabled */
 188:usb_driver/Src/usb_core.c ****     if (ValBit(Feature, 5))
 181              		.loc 1 188 5 is_stmt 1 view .LVU43
 182              		.loc 1 188 8 is_stmt 0 view .LVU44
 183 0018 13F0200F 		tst	r3, #32
 184 001c 02D0     		beq	.L19
 189:usb_driver/Src/usb_core.c ****     {
 190:usb_driver/Src/usb_core.c ****       SetBit(StatusInfo0, 1);
 185              		.loc 1 190 7 is_stmt 1 view .LVU45
 186 001e 234A     		ldr	r2, .L28
 187 0020 0221     		movs	r1, #2
 188 0022 1170     		strb	r1, [r2]
 189              	.L19:
 191:usb_driver/Src/usb_core.c ****     }
 192:usb_driver/Src/usb_core.c ****     else
 193:usb_driver/Src/usb_core.c ****     {
 194:usb_driver/Src/usb_core.c ****       ClrBit(StatusInfo0, 1);
 195:usb_driver/Src/usb_core.c ****     }      
 196:usb_driver/Src/usb_core.c **** 
 197:usb_driver/Src/usb_core.c ****     /* Bus-powered */
 198:usb_driver/Src/usb_core.c ****     if (ValBit(Feature, 6))
 190              		.loc 1 198 5 view .LVU46
 191              		.loc 1 198 8 is_stmt 0 view .LVU47
 192 0024 13F0400F 		tst	r3, #64
 193 0028 0FD0     		beq	.L20
 199:usb_driver/Src/usb_core.c ****     {
 200:usb_driver/Src/usb_core.c ****       SetBit(StatusInfo0, 0);
 194              		.loc 1 200 7 is_stmt 1 view .LVU48
ARM GAS  /tmp/ccIB1023.s 			page 8


 195 002a 204A     		ldr	r2, .L28
 196 002c 1378     		ldrb	r3, [r2]	@ zero_extendqisi2
 197              	.LVL8:
 198              		.loc 1 200 7 is_stmt 0 view .LVU49
 199 002e 43F00103 		orr	r3, r3, #1
 200 0032 1370     		strb	r3, [r2]
 201              	.LVL9:
 202              	.L21:
 203              		.loc 1 200 7 view .LVU50
 204              	.LBE2:
 201:usb_driver/Src/usb_core.c ****     }
 202:usb_driver/Src/usb_core.c ****     else /* Self-powered */
 203:usb_driver/Src/usb_core.c ****     {
 204:usb_driver/Src/usb_core.c ****       ClrBit(StatusInfo0, 0);
 205:usb_driver/Src/usb_core.c ****     }
 206:usb_driver/Src/usb_core.c ****   }
 207:usb_driver/Src/usb_core.c ****   /*Interface Status*/
 208:usb_driver/Src/usb_core.c ****   else if (Type_Recipient == (STANDARD_REQUEST | INTERFACE_RECIPIENT))
 209:usb_driver/Src/usb_core.c ****   {
 210:usb_driver/Src/usb_core.c ****     return (uint8_t *)&StatusInfo;
 211:usb_driver/Src/usb_core.c ****   }
 212:usb_driver/Src/usb_core.c ****   /*Get EndPoint Status*/
 213:usb_driver/Src/usb_core.c ****   else if (Type_Recipient == (STANDARD_REQUEST | ENDPOINT_RECIPIENT))
 214:usb_driver/Src/usb_core.c ****   {
 215:usb_driver/Src/usb_core.c ****     uint8_t Related_Endpoint;
 216:usb_driver/Src/usb_core.c ****     uint8_t wIndex0 = pInformation->USBwIndex0;
 217:usb_driver/Src/usb_core.c **** 
 218:usb_driver/Src/usb_core.c ****     Related_Endpoint = (wIndex0 & 0x0f);
 219:usb_driver/Src/usb_core.c ****     if (ValBit(wIndex0, 7))
 220:usb_driver/Src/usb_core.c ****     {
 221:usb_driver/Src/usb_core.c ****       /* IN endpoint */
 222:usb_driver/Src/usb_core.c ****       if (_GetTxStallStatus(Related_Endpoint))
 223:usb_driver/Src/usb_core.c ****       {
 224:usb_driver/Src/usb_core.c ****         SetBit(StatusInfo0, 0); /* IN Endpoint stalled */
 225:usb_driver/Src/usb_core.c ****       }
 226:usb_driver/Src/usb_core.c ****     }
 227:usb_driver/Src/usb_core.c ****     else
 228:usb_driver/Src/usb_core.c ****     {
 229:usb_driver/Src/usb_core.c ****       /* OUT endpoint */
 230:usb_driver/Src/usb_core.c ****       if (_GetRxStallStatus(Related_Endpoint))
 231:usb_driver/Src/usb_core.c ****       {
 232:usb_driver/Src/usb_core.c ****         SetBit(StatusInfo0, 0); /* OUT Endpoint stalled */
 233:usb_driver/Src/usb_core.c ****       }
 234:usb_driver/Src/usb_core.c ****     }
 235:usb_driver/Src/usb_core.c **** 
 236:usb_driver/Src/usb_core.c ****   }
 237:usb_driver/Src/usb_core.c ****   else
 238:usb_driver/Src/usb_core.c ****   {
 239:usb_driver/Src/usb_core.c ****     return NULL;
 240:usb_driver/Src/usb_core.c ****   }
 241:usb_driver/Src/usb_core.c ****   pUser_Standard_Requests->User_GetStatus();
 205              		.loc 1 241 3 is_stmt 1 view .LVU51
 206              		.loc 1 241 26 is_stmt 0 view .LVU52
 207 0034 1F4B     		ldr	r3, .L28+8
 208 0036 1B68     		ldr	r3, [r3]
 209 0038 1B69     		ldr	r3, [r3, #16]
 210              		.loc 1 241 3 view .LVU53
ARM GAS  /tmp/ccIB1023.s 			page 9


 211 003a 9847     		blx	r3
 212              	.LVL10:
 242:usb_driver/Src/usb_core.c ****   return (uint8_t *)&StatusInfo;
 213              		.loc 1 242 3 is_stmt 1 view .LVU54
 214              		.loc 1 242 10 is_stmt 0 view .LVU55
 215 003c 1B48     		ldr	r0, .L28
 216              	.L15:
 243:usb_driver/Src/usb_core.c **** }
 217              		.loc 1 243 1 view .LVU56
 218 003e 08BD     		pop	{r3, pc}
 219              	.LVL11:
 220              	.L26:
 175:usb_driver/Src/usb_core.c ****     return 0;
 221              		.loc 1 175 5 is_stmt 1 view .LVU57
 175:usb_driver/Src/usb_core.c ****     return 0;
 222              		.loc 1 175 17 is_stmt 0 view .LVU58
 223 0040 1B4B     		ldr	r3, .L28+4
 224 0042 1B68     		ldr	r3, [r3]
 175:usb_driver/Src/usb_core.c ****     return 0;
 225              		.loc 1 175 41 view .LVU59
 226 0044 0222     		movs	r2, #2
 227 0046 1A82     		strh	r2, [r3, #16]	@ movhi
 176:usb_driver/Src/usb_core.c ****   }
 228              		.loc 1 176 5 is_stmt 1 view .LVU60
 176:usb_driver/Src/usb_core.c ****   }
 229              		.loc 1 176 12 is_stmt 0 view .LVU61
 230 0048 F9E7     		b	.L15
 231              	.LVL12:
 232              	.L20:
 233              	.LBB3:
 204:usb_driver/Src/usb_core.c ****     }
 234              		.loc 1 204 7 is_stmt 1 view .LVU62
 235 004a 184A     		ldr	r2, .L28
 236 004c 1378     		ldrb	r3, [r2]	@ zero_extendqisi2
 237              	.LVL13:
 204:usb_driver/Src/usb_core.c ****     }
 238              		.loc 1 204 7 is_stmt 0 view .LVU63
 239 004e 23F00103 		bic	r3, r3, #1
 240 0052 1370     		strb	r3, [r2]
 241 0054 EEE7     		b	.L21
 242              	.LVL14:
 243              	.L18:
 204:usb_driver/Src/usb_core.c ****     }
 244              		.loc 1 204 7 view .LVU64
 245              	.LBE3:
 208:usb_driver/Src/usb_core.c ****   {
 246              		.loc 1 208 8 is_stmt 1 view .LVU65
 208:usb_driver/Src/usb_core.c ****   {
 247              		.loc 1 208 11 is_stmt 0 view .LVU66
 248 0056 012B     		cmp	r3, #1
 249 0058 24D0     		beq	.L23
 213:usb_driver/Src/usb_core.c ****   {
 250              		.loc 1 213 8 is_stmt 1 view .LVU67
 213:usb_driver/Src/usb_core.c ****   {
 251              		.loc 1 213 11 is_stmt 0 view .LVU68
 252 005a 022B     		cmp	r3, #2
 253 005c 24D1     		bne	.L24
ARM GAS  /tmp/ccIB1023.s 			page 10


 254              	.LBB4:
 215:usb_driver/Src/usb_core.c ****     uint8_t wIndex0 = pInformation->USBwIndex0;
 255              		.loc 1 215 5 is_stmt 1 view .LVU69
 216:usb_driver/Src/usb_core.c **** 
 256              		.loc 1 216 5 view .LVU70
 216:usb_driver/Src/usb_core.c **** 
 257              		.loc 1 216 13 is_stmt 0 view .LVU71
 258 005e 5279     		ldrb	r2, [r2, #5]	@ zero_extendqisi2
 259              	.LVL15:
 218:usb_driver/Src/usb_core.c ****     if (ValBit(wIndex0, 7))
 260              		.loc 1 218 5 is_stmt 1 view .LVU72
 218:usb_driver/Src/usb_core.c ****     if (ValBit(wIndex0, 7))
 261              		.loc 1 218 22 is_stmt 0 view .LVU73
 262 0060 02F00F03 		and	r3, r2, #15
 263              	.LVL16:
 219:usb_driver/Src/usb_core.c ****     {
 264              		.loc 1 219 5 is_stmt 1 view .LVU74
 219:usb_driver/Src/usb_core.c ****     {
 265              		.loc 1 219 8 is_stmt 0 view .LVU75
 266 0064 12F0800F 		tst	r2, #128
 267 0068 0ED1     		bne	.L27
 230:usb_driver/Src/usb_core.c ****       {
 268              		.loc 1 230 7 is_stmt 1 view .LVU76
 230:usb_driver/Src/usb_core.c ****       {
 269              		.loc 1 230 11 is_stmt 0 view .LVU77
 270 006a 9B00     		lsls	r3, r3, #2
 271              	.LVL17:
 230:usb_driver/Src/usb_core.c ****       {
 272              		.loc 1 230 11 view .LVU78
 273 006c 03F18043 		add	r3, r3, #1073741824
 274 0070 03F5B843 		add	r3, r3, #23552
 275 0074 1B68     		ldr	r3, [r3]
 276 0076 03F44053 		and	r3, r3, #12288
 230:usb_driver/Src/usb_core.c ****       {
 277              		.loc 1 230 10 view .LVU79
 278 007a B3F5805F 		cmp	r3, #4096
 279 007e D9D1     		bne	.L21
 232:usb_driver/Src/usb_core.c ****       }
 280              		.loc 1 232 9 is_stmt 1 view .LVU80
 281 0080 0A4B     		ldr	r3, .L28
 282 0082 0122     		movs	r2, #1
 283              	.LVL18:
 232:usb_driver/Src/usb_core.c ****       }
 284              		.loc 1 232 9 is_stmt 0 view .LVU81
 285 0084 1A70     		strb	r2, [r3]
 286 0086 D5E7     		b	.L21
 287              	.LVL19:
 288              	.L27:
 222:usb_driver/Src/usb_core.c ****       {
 289              		.loc 1 222 7 is_stmt 1 view .LVU82
 222:usb_driver/Src/usb_core.c ****       {
 290              		.loc 1 222 11 is_stmt 0 view .LVU83
 291 0088 9B00     		lsls	r3, r3, #2
 292              	.LVL20:
 222:usb_driver/Src/usb_core.c ****       {
 293              		.loc 1 222 11 view .LVU84
 294 008a 03F18043 		add	r3, r3, #1073741824
ARM GAS  /tmp/ccIB1023.s 			page 11


 295 008e 03F5B843 		add	r3, r3, #23552
 296 0092 1B68     		ldr	r3, [r3]
 297 0094 03F03003 		and	r3, r3, #48
 222:usb_driver/Src/usb_core.c ****       {
 298              		.loc 1 222 10 view .LVU85
 299 0098 102B     		cmp	r3, #16
 300 009a CBD1     		bne	.L21
 224:usb_driver/Src/usb_core.c ****       }
 301              		.loc 1 224 9 is_stmt 1 view .LVU86
 302 009c 034B     		ldr	r3, .L28
 303 009e 0122     		movs	r2, #1
 304              	.LVL21:
 224:usb_driver/Src/usb_core.c ****       }
 305              		.loc 1 224 9 is_stmt 0 view .LVU87
 306 00a0 1A70     		strb	r2, [r3]
 307 00a2 C7E7     		b	.L21
 308              	.LVL22:
 309              	.L23:
 224:usb_driver/Src/usb_core.c ****       }
 310              		.loc 1 224 9 view .LVU88
 311              	.LBE4:
 210:usb_driver/Src/usb_core.c ****   }
 312              		.loc 1 210 12 view .LVU89
 313 00a4 0148     		ldr	r0, .L28
 314              	.LVL23:
 210:usb_driver/Src/usb_core.c ****   }
 315              		.loc 1 210 12 view .LVU90
 316 00a6 CAE7     		b	.L15
 317              	.LVL24:
 318              	.L24:
 239:usb_driver/Src/usb_core.c ****   }
 319              		.loc 1 239 12 view .LVU91
 320 00a8 0020     		movs	r0, #0
 321              	.LVL25:
 239:usb_driver/Src/usb_core.c ****   }
 322              		.loc 1 239 12 view .LVU92
 323 00aa C8E7     		b	.L15
 324              	.L29:
 325              		.align	2
 326              	.L28:
 327 00ac 00000000 		.word	.LANCHOR0
 328 00b0 00000000 		.word	pInformation
 329 00b4 00000000 		.word	pUser_Standard_Requests
 330              		.cfi_endproc
 331              	.LFE60:
 333              		.section	.text.DataStageIn,"ax",%progbits
 334              		.align	1
 335              		.syntax unified
 336              		.thumb
 337              		.thumb_func
 338              		.fpu softvfp
 340              	DataStageIn:
 341              	.LFB66:
 244:usb_driver/Src/usb_core.c **** 
 245:usb_driver/Src/usb_core.c **** /*******************************************************************************
 246:usb_driver/Src/usb_core.c **** * Function Name  : Standard_ClearFeature.
 247:usb_driver/Src/usb_core.c **** * Description    : Clear or disable a specific feature.
ARM GAS  /tmp/ccIB1023.s 			page 12


 248:usb_driver/Src/usb_core.c **** * Input          : None.
 249:usb_driver/Src/usb_core.c **** * Output         : None.
 250:usb_driver/Src/usb_core.c **** * Return         : - Return USB_SUCCESS, if the request is performed.
 251:usb_driver/Src/usb_core.c **** *                  - Return USB_UNSUPPORT, if the request is invalid.
 252:usb_driver/Src/usb_core.c **** *******************************************************************************/
 253:usb_driver/Src/usb_core.c **** RESULT Standard_ClearFeature(void)
 254:usb_driver/Src/usb_core.c **** {
 255:usb_driver/Src/usb_core.c ****   uint32_t     Type_Rec = Type_Recipient;
 256:usb_driver/Src/usb_core.c ****   uint32_t     Status;
 257:usb_driver/Src/usb_core.c **** 
 258:usb_driver/Src/usb_core.c **** 
 259:usb_driver/Src/usb_core.c ****   if (Type_Rec == (STANDARD_REQUEST | DEVICE_RECIPIENT))
 260:usb_driver/Src/usb_core.c ****   {/*Device Clear Feature*/
 261:usb_driver/Src/usb_core.c ****     ClrBit(pInformation->Current_Feature, 5);
 262:usb_driver/Src/usb_core.c ****     return USB_SUCCESS;
 263:usb_driver/Src/usb_core.c ****   }
 264:usb_driver/Src/usb_core.c ****   else if (Type_Rec == (STANDARD_REQUEST | ENDPOINT_RECIPIENT))
 265:usb_driver/Src/usb_core.c ****   {/*EndPoint Clear Feature*/
 266:usb_driver/Src/usb_core.c ****     DEVICE* pDev;
 267:usb_driver/Src/usb_core.c ****     uint32_t Related_Endpoint;
 268:usb_driver/Src/usb_core.c ****     uint32_t wIndex0;
 269:usb_driver/Src/usb_core.c ****     uint32_t rEP;
 270:usb_driver/Src/usb_core.c **** 
 271:usb_driver/Src/usb_core.c ****     if ((pInformation->USBwValue != ENDPOINT_STALL)
 272:usb_driver/Src/usb_core.c ****         || (pInformation->USBwIndex1 != 0))
 273:usb_driver/Src/usb_core.c ****     {
 274:usb_driver/Src/usb_core.c ****       return USB_UNSUPPORT;
 275:usb_driver/Src/usb_core.c ****     }
 276:usb_driver/Src/usb_core.c **** 
 277:usb_driver/Src/usb_core.c ****     pDev = &Device_Table;
 278:usb_driver/Src/usb_core.c ****     wIndex0 = pInformation->USBwIndex0;
 279:usb_driver/Src/usb_core.c ****     rEP = wIndex0 & ~0x80;
 280:usb_driver/Src/usb_core.c ****     Related_Endpoint = ENDP0 + rEP;
 281:usb_driver/Src/usb_core.c **** 
 282:usb_driver/Src/usb_core.c ****     if (ValBit(pInformation->USBwIndex0, 7))
 283:usb_driver/Src/usb_core.c ****     {
 284:usb_driver/Src/usb_core.c ****       /*Get Status of endpoint & stall the request if the related_ENdpoint
 285:usb_driver/Src/usb_core.c ****       is Disabled*/
 286:usb_driver/Src/usb_core.c ****       Status = _GetEPTxStatus(Related_Endpoint);
 287:usb_driver/Src/usb_core.c ****     }
 288:usb_driver/Src/usb_core.c ****     else
 289:usb_driver/Src/usb_core.c ****     {
 290:usb_driver/Src/usb_core.c ****       Status = _GetEPRxStatus(Related_Endpoint);
 291:usb_driver/Src/usb_core.c ****     }
 292:usb_driver/Src/usb_core.c **** 
 293:usb_driver/Src/usb_core.c ****     if ((rEP >= pDev->Total_Endpoint) || (Status == 0)
 294:usb_driver/Src/usb_core.c ****         || (pInformation->Current_Configuration == 0))
 295:usb_driver/Src/usb_core.c ****     {
 296:usb_driver/Src/usb_core.c ****       return USB_UNSUPPORT;
 297:usb_driver/Src/usb_core.c ****     }
 298:usb_driver/Src/usb_core.c **** 
 299:usb_driver/Src/usb_core.c **** 
 300:usb_driver/Src/usb_core.c ****     if (wIndex0 & 0x80)
 301:usb_driver/Src/usb_core.c ****     {
 302:usb_driver/Src/usb_core.c ****       /* IN endpoint */
 303:usb_driver/Src/usb_core.c ****       if (_GetTxStallStatus(Related_Endpoint ))
 304:usb_driver/Src/usb_core.c ****       {
ARM GAS  /tmp/ccIB1023.s 			page 13


 305:usb_driver/Src/usb_core.c ****         ClearDTOG_TX(Related_Endpoint);
 306:usb_driver/Src/usb_core.c ****         SetEPTxStatus(Related_Endpoint, EP_TX_VALID);
 307:usb_driver/Src/usb_core.c ****       }
 308:usb_driver/Src/usb_core.c ****     }
 309:usb_driver/Src/usb_core.c ****     else
 310:usb_driver/Src/usb_core.c ****     {
 311:usb_driver/Src/usb_core.c ****       /* OUT endpoint */
 312:usb_driver/Src/usb_core.c ****       if (_GetRxStallStatus(Related_Endpoint))
 313:usb_driver/Src/usb_core.c ****       {
 314:usb_driver/Src/usb_core.c ****         if (Related_Endpoint == ENDP0)
 315:usb_driver/Src/usb_core.c ****         {
 316:usb_driver/Src/usb_core.c ****           /* After clear the STALL, enable the default endpoint receiver */
 317:usb_driver/Src/usb_core.c ****           SetEPRxCount(Related_Endpoint, Device_Property.MaxPacketSize);
 318:usb_driver/Src/usb_core.c ****           _SetEPRxStatus(Related_Endpoint, EP_RX_VALID);
 319:usb_driver/Src/usb_core.c ****         }
 320:usb_driver/Src/usb_core.c ****         else
 321:usb_driver/Src/usb_core.c ****         {
 322:usb_driver/Src/usb_core.c ****           ClearDTOG_RX(Related_Endpoint);
 323:usb_driver/Src/usb_core.c ****           _SetEPRxStatus(Related_Endpoint, EP_RX_VALID);
 324:usb_driver/Src/usb_core.c ****         }
 325:usb_driver/Src/usb_core.c ****       }
 326:usb_driver/Src/usb_core.c ****     }
 327:usb_driver/Src/usb_core.c ****     pUser_Standard_Requests->User_ClearFeature();
 328:usb_driver/Src/usb_core.c ****     return USB_SUCCESS;
 329:usb_driver/Src/usb_core.c ****   }
 330:usb_driver/Src/usb_core.c **** 
 331:usb_driver/Src/usb_core.c ****   return USB_UNSUPPORT;
 332:usb_driver/Src/usb_core.c **** }
 333:usb_driver/Src/usb_core.c **** 
 334:usb_driver/Src/usb_core.c **** /*******************************************************************************
 335:usb_driver/Src/usb_core.c **** * Function Name  : Standard_SetEndPointFeature
 336:usb_driver/Src/usb_core.c **** * Description    : Set or enable a specific feature of EndPoint
 337:usb_driver/Src/usb_core.c **** * Input          : None.
 338:usb_driver/Src/usb_core.c **** * Output         : None.
 339:usb_driver/Src/usb_core.c **** * Return         : - Return USB_SUCCESS, if the request is performed.
 340:usb_driver/Src/usb_core.c **** *                  - Return USB_UNSUPPORT, if the request is invalid.
 341:usb_driver/Src/usb_core.c **** *******************************************************************************/
 342:usb_driver/Src/usb_core.c **** RESULT Standard_SetEndPointFeature(void)
 343:usb_driver/Src/usb_core.c **** {
 344:usb_driver/Src/usb_core.c ****   uint32_t    wIndex0;
 345:usb_driver/Src/usb_core.c ****   uint32_t    Related_Endpoint;
 346:usb_driver/Src/usb_core.c ****   uint32_t    rEP;
 347:usb_driver/Src/usb_core.c ****   uint32_t    Status;
 348:usb_driver/Src/usb_core.c **** 
 349:usb_driver/Src/usb_core.c ****   wIndex0 = pInformation->USBwIndex0;
 350:usb_driver/Src/usb_core.c ****   rEP = wIndex0 & ~0x80;
 351:usb_driver/Src/usb_core.c ****   Related_Endpoint = ENDP0 + rEP;
 352:usb_driver/Src/usb_core.c **** 
 353:usb_driver/Src/usb_core.c ****   if (ValBit(pInformation->USBwIndex0, 7))
 354:usb_driver/Src/usb_core.c ****   {
 355:usb_driver/Src/usb_core.c ****     /* get Status of endpoint & stall the request if the related_ENdpoint
 356:usb_driver/Src/usb_core.c ****     is Disabled*/
 357:usb_driver/Src/usb_core.c ****     Status = _GetEPTxStatus(Related_Endpoint);
 358:usb_driver/Src/usb_core.c ****   }
 359:usb_driver/Src/usb_core.c ****   else
 360:usb_driver/Src/usb_core.c ****   {
 361:usb_driver/Src/usb_core.c ****     Status = _GetEPRxStatus(Related_Endpoint);
ARM GAS  /tmp/ccIB1023.s 			page 14


 362:usb_driver/Src/usb_core.c ****   }
 363:usb_driver/Src/usb_core.c **** 
 364:usb_driver/Src/usb_core.c ****   if (Related_Endpoint >= Device_Table.Total_Endpoint
 365:usb_driver/Src/usb_core.c ****       || pInformation->USBwValue != 0 || Status == 0
 366:usb_driver/Src/usb_core.c ****       || pInformation->Current_Configuration == 0)
 367:usb_driver/Src/usb_core.c ****   {
 368:usb_driver/Src/usb_core.c ****     return USB_UNSUPPORT;
 369:usb_driver/Src/usb_core.c ****   }
 370:usb_driver/Src/usb_core.c ****   else
 371:usb_driver/Src/usb_core.c ****   {
 372:usb_driver/Src/usb_core.c ****     if (wIndex0 & 0x80)
 373:usb_driver/Src/usb_core.c ****     {
 374:usb_driver/Src/usb_core.c ****       /* IN endpoint */
 375:usb_driver/Src/usb_core.c ****       _SetEPTxStatus(Related_Endpoint, EP_TX_STALL);
 376:usb_driver/Src/usb_core.c ****     }
 377:usb_driver/Src/usb_core.c **** 
 378:usb_driver/Src/usb_core.c ****     else
 379:usb_driver/Src/usb_core.c ****     {
 380:usb_driver/Src/usb_core.c ****       /* OUT endpoint */
 381:usb_driver/Src/usb_core.c ****       _SetEPRxStatus(Related_Endpoint, EP_RX_STALL);
 382:usb_driver/Src/usb_core.c ****     }
 383:usb_driver/Src/usb_core.c ****   }
 384:usb_driver/Src/usb_core.c ****   pUser_Standard_Requests->User_SetEndPointFeature();
 385:usb_driver/Src/usb_core.c ****   return USB_SUCCESS;
 386:usb_driver/Src/usb_core.c **** }
 387:usb_driver/Src/usb_core.c **** 
 388:usb_driver/Src/usb_core.c **** /*******************************************************************************
 389:usb_driver/Src/usb_core.c **** * Function Name  : Standard_SetDeviceFeature.
 390:usb_driver/Src/usb_core.c **** * Description    : Set or enable a specific feature of Device.
 391:usb_driver/Src/usb_core.c **** * Input          : None.
 392:usb_driver/Src/usb_core.c **** * Output         : None.
 393:usb_driver/Src/usb_core.c **** * Return         : - Return USB_SUCCESS, if the request is performed.
 394:usb_driver/Src/usb_core.c **** *                  - Return USB_UNSUPPORT, if the request is invalid.
 395:usb_driver/Src/usb_core.c **** *******************************************************************************/
 396:usb_driver/Src/usb_core.c **** RESULT Standard_SetDeviceFeature(void)
 397:usb_driver/Src/usb_core.c **** {
 398:usb_driver/Src/usb_core.c ****   SetBit(pInformation->Current_Feature, 5);
 399:usb_driver/Src/usb_core.c ****   pUser_Standard_Requests->User_SetDeviceFeature();
 400:usb_driver/Src/usb_core.c ****   return USB_SUCCESS;
 401:usb_driver/Src/usb_core.c **** }
 402:usb_driver/Src/usb_core.c **** 
 403:usb_driver/Src/usb_core.c **** /*******************************************************************************
 404:usb_driver/Src/usb_core.c **** * Function Name  : Standard_GetDescriptorData.
 405:usb_driver/Src/usb_core.c **** * Description    : Standard_GetDescriptorData is used for descriptors transfer.
 406:usb_driver/Src/usb_core.c **** *                : This routine is used for the descriptors resident in Flash
 407:usb_driver/Src/usb_core.c **** *                  or RAM
 408:usb_driver/Src/usb_core.c **** *                  pDesc can be in either Flash or RAM
 409:usb_driver/Src/usb_core.c **** *                  The purpose of this routine is to have a versatile way to
 410:usb_driver/Src/usb_core.c **** *                  response descriptors request. It allows user to generate
 411:usb_driver/Src/usb_core.c **** *                  certain descriptors with software or read descriptors from
 412:usb_driver/Src/usb_core.c **** *                  external storage part by part.
 413:usb_driver/Src/usb_core.c **** * Input          : - Length - Length of the data in this transfer.
 414:usb_driver/Src/usb_core.c **** *                  - pDesc - A pointer points to descriptor struct.
 415:usb_driver/Src/usb_core.c **** *                  The structure gives the initial address of the descriptor and
 416:usb_driver/Src/usb_core.c **** *                  its original size.
 417:usb_driver/Src/usb_core.c **** * Output         : None.
 418:usb_driver/Src/usb_core.c **** * Return         : Address of a part of the descriptor pointed by the Usb_
ARM GAS  /tmp/ccIB1023.s 			page 15


 419:usb_driver/Src/usb_core.c **** *                  wOffset The buffer pointed by this address contains at least
 420:usb_driver/Src/usb_core.c **** *                  Length bytes.
 421:usb_driver/Src/usb_core.c **** *******************************************************************************/
 422:usb_driver/Src/usb_core.c **** uint8_t *Standard_GetDescriptorData(uint16_t Length, ONE_DESCRIPTOR *pDesc)
 423:usb_driver/Src/usb_core.c **** {
 424:usb_driver/Src/usb_core.c ****   uint32_t  wOffset;
 425:usb_driver/Src/usb_core.c **** 
 426:usb_driver/Src/usb_core.c ****   wOffset = pInformation->Ctrl_Info.Usb_wOffset;
 427:usb_driver/Src/usb_core.c ****   if (Length == 0)
 428:usb_driver/Src/usb_core.c ****   {
 429:usb_driver/Src/usb_core.c ****     pInformation->Ctrl_Info.Usb_wLength = pDesc->Descriptor_Size - wOffset;
 430:usb_driver/Src/usb_core.c ****     return 0;
 431:usb_driver/Src/usb_core.c ****   }
 432:usb_driver/Src/usb_core.c **** 
 433:usb_driver/Src/usb_core.c ****   return pDesc->Descriptor + wOffset;
 434:usb_driver/Src/usb_core.c **** }
 435:usb_driver/Src/usb_core.c **** 
 436:usb_driver/Src/usb_core.c **** /*******************************************************************************
 437:usb_driver/Src/usb_core.c **** * Function Name  : DataStageOut.
 438:usb_driver/Src/usb_core.c **** * Description    : Data stage of a Control Write Transfer.
 439:usb_driver/Src/usb_core.c **** * Input          : None.
 440:usb_driver/Src/usb_core.c **** * Output         : None.
 441:usb_driver/Src/usb_core.c **** * Return         : None.
 442:usb_driver/Src/usb_core.c **** *******************************************************************************/
 443:usb_driver/Src/usb_core.c **** void DataStageOut(void)
 444:usb_driver/Src/usb_core.c **** {
 445:usb_driver/Src/usb_core.c ****   ENDPOINT_INFO *pEPinfo = &pInformation->Ctrl_Info;
 446:usb_driver/Src/usb_core.c ****   uint32_t save_rLength;
 447:usb_driver/Src/usb_core.c **** 
 448:usb_driver/Src/usb_core.c ****   save_rLength = pEPinfo->Usb_rLength;
 449:usb_driver/Src/usb_core.c **** 
 450:usb_driver/Src/usb_core.c ****   if (pEPinfo->CopyData && save_rLength)
 451:usb_driver/Src/usb_core.c ****   {
 452:usb_driver/Src/usb_core.c ****     uint8_t *Buffer;
 453:usb_driver/Src/usb_core.c ****     uint32_t Length;
 454:usb_driver/Src/usb_core.c **** 
 455:usb_driver/Src/usb_core.c ****     Length = pEPinfo->PacketSize;
 456:usb_driver/Src/usb_core.c ****     if (Length > save_rLength)
 457:usb_driver/Src/usb_core.c ****     {
 458:usb_driver/Src/usb_core.c ****       Length = save_rLength;
 459:usb_driver/Src/usb_core.c ****     }
 460:usb_driver/Src/usb_core.c **** 
 461:usb_driver/Src/usb_core.c ****     Buffer = (*pEPinfo->CopyData)(Length);
 462:usb_driver/Src/usb_core.c ****     pEPinfo->Usb_rLength -= Length;
 463:usb_driver/Src/usb_core.c ****     pEPinfo->Usb_rOffset += Length;
 464:usb_driver/Src/usb_core.c ****     PMAToUserBufferCopy(Buffer, GetEPRxAddr(ENDP0), Length);
 465:usb_driver/Src/usb_core.c **** 
 466:usb_driver/Src/usb_core.c ****   }
 467:usb_driver/Src/usb_core.c **** 
 468:usb_driver/Src/usb_core.c ****   if (pEPinfo->Usb_rLength != 0)
 469:usb_driver/Src/usb_core.c ****   {
 470:usb_driver/Src/usb_core.c ****     vSetEPRxStatus(EP_RX_VALID);/* re-enable for next data reception */
 471:usb_driver/Src/usb_core.c ****     SetEPTxCount(ENDP0, 0);
 472:usb_driver/Src/usb_core.c ****     vSetEPTxStatus(EP_TX_VALID);/* Expect the host to abort the data OUT stage */
 473:usb_driver/Src/usb_core.c ****   }
 474:usb_driver/Src/usb_core.c ****   /* Set the next State*/
 475:usb_driver/Src/usb_core.c ****   if (pEPinfo->Usb_rLength >= pEPinfo->PacketSize)
ARM GAS  /tmp/ccIB1023.s 			page 16


 476:usb_driver/Src/usb_core.c ****   {
 477:usb_driver/Src/usb_core.c ****     pInformation->ControlState = OUT_DATA;
 478:usb_driver/Src/usb_core.c ****   }
 479:usb_driver/Src/usb_core.c ****   else
 480:usb_driver/Src/usb_core.c ****   {
 481:usb_driver/Src/usb_core.c ****     if (pEPinfo->Usb_rLength > 0)
 482:usb_driver/Src/usb_core.c ****     {
 483:usb_driver/Src/usb_core.c ****       pInformation->ControlState = LAST_OUT_DATA;
 484:usb_driver/Src/usb_core.c ****     }
 485:usb_driver/Src/usb_core.c ****     else if (pEPinfo->Usb_rLength == 0)
 486:usb_driver/Src/usb_core.c ****     {
 487:usb_driver/Src/usb_core.c ****       pInformation->ControlState = WAIT_STATUS_IN;
 488:usb_driver/Src/usb_core.c ****       USB_StatusIn();
 489:usb_driver/Src/usb_core.c ****     }
 490:usb_driver/Src/usb_core.c ****   }
 491:usb_driver/Src/usb_core.c **** }
 492:usb_driver/Src/usb_core.c **** 
 493:usb_driver/Src/usb_core.c **** /*******************************************************************************
 494:usb_driver/Src/usb_core.c **** * Function Name  : DataStageIn.
 495:usb_driver/Src/usb_core.c **** * Description    : Data stage of a Control Read Transfer.
 496:usb_driver/Src/usb_core.c **** * Input          : None.
 497:usb_driver/Src/usb_core.c **** * Output         : None.
 498:usb_driver/Src/usb_core.c **** * Return         : None.
 499:usb_driver/Src/usb_core.c **** *******************************************************************************/
 500:usb_driver/Src/usb_core.c **** void DataStageIn(void)
 501:usb_driver/Src/usb_core.c **** {
 342              		.loc 1 501 1 is_stmt 1 view -0
 343              		.cfi_startproc
 344              		@ args = 0, pretend = 0, frame = 0
 345              		@ frame_needed = 0, uses_anonymous_args = 0
 346 0000 F8B5     		push	{r3, r4, r5, r6, r7, lr}
 347              	.LCFI3:
 348              		.cfi_def_cfa_offset 24
 349              		.cfi_offset 3, -24
 350              		.cfi_offset 4, -20
 351              		.cfi_offset 5, -16
 352              		.cfi_offset 6, -12
 353              		.cfi_offset 7, -8
 354              		.cfi_offset 14, -4
 502:usb_driver/Src/usb_core.c ****   ENDPOINT_INFO *pEPinfo = &pInformation->Ctrl_Info;
 355              		.loc 1 502 3 view .LVU94
 356              		.loc 1 502 41 is_stmt 0 view .LVU95
 357 0002 254B     		ldr	r3, .L41
 358 0004 1D68     		ldr	r5, [r3]
 359              	.LVL26:
 503:usb_driver/Src/usb_core.c ****   uint32_t save_wLength = pEPinfo->Usb_wLength;
 360              		.loc 1 503 3 is_stmt 1 view .LVU96
 361              		.loc 1 503 34 is_stmt 0 view .LVU97
 362 0006 2C8A     		ldrh	r4, [r5, #16]
 363              	.LVL27:
 504:usb_driver/Src/usb_core.c ****   uint32_t ControlState = pInformation->ControlState;
 364              		.loc 1 504 3 is_stmt 1 view .LVU98
 365              		.loc 1 504 39 is_stmt 0 view .LVU99
 366 0008 2B7A     		ldrb	r3, [r5, #8]	@ zero_extendqisi2
 367              	.LVL28:
 505:usb_driver/Src/usb_core.c **** 
 506:usb_driver/Src/usb_core.c ****   uint8_t *DataBuffer;
ARM GAS  /tmp/ccIB1023.s 			page 17


 368              		.loc 1 506 3 is_stmt 1 view .LVU100
 507:usb_driver/Src/usb_core.c ****   uint32_t Length;
 369              		.loc 1 507 3 view .LVU101
 508:usb_driver/Src/usb_core.c **** 
 509:usb_driver/Src/usb_core.c ****   if ((save_wLength == 0) && (ControlState == LAST_IN_DATA))
 370              		.loc 1 509 3 view .LVU102
 371              		.loc 1 509 6 is_stmt 0 view .LVU103
 372 000a 0CB9     		cbnz	r4, .L31
 373              		.loc 1 509 27 discriminator 1 view .LVU104
 374 000c 042B     		cmp	r3, #4
 375 000e 28D0     		beq	.L39
 376              	.L31:
 510:usb_driver/Src/usb_core.c ****   {
 511:usb_driver/Src/usb_core.c ****     if(Data_Mul_MaxPacketSize == TRUE)
 512:usb_driver/Src/usb_core.c ****     {
 513:usb_driver/Src/usb_core.c ****       /* No more data to send and empty packet */
 514:usb_driver/Src/usb_core.c ****       Send0LengthData();
 515:usb_driver/Src/usb_core.c ****       ControlState = LAST_IN_DATA;
 516:usb_driver/Src/usb_core.c ****       Data_Mul_MaxPacketSize = FALSE;
 517:usb_driver/Src/usb_core.c ****     }
 518:usb_driver/Src/usb_core.c ****     else 
 519:usb_driver/Src/usb_core.c ****     {
 520:usb_driver/Src/usb_core.c ****       /* No more data to send so STALL the TX Status*/
 521:usb_driver/Src/usb_core.c ****       ControlState = WAIT_STATUS_OUT;
 522:usb_driver/Src/usb_core.c ****       vSetEPTxStatus(EP_TX_STALL);
 523:usb_driver/Src/usb_core.c ****  
 524:usb_driver/Src/usb_core.c ****     }
 525:usb_driver/Src/usb_core.c ****     
 526:usb_driver/Src/usb_core.c ****     goto Expect_Status_Out;
 527:usb_driver/Src/usb_core.c ****   }
 528:usb_driver/Src/usb_core.c **** 
 529:usb_driver/Src/usb_core.c ****   Length = pEPinfo->PacketSize;
 377              		.loc 1 529 3 is_stmt 1 view .LVU105
 378              		.loc 1 529 19 is_stmt 0 view .LVU106
 379 0010 AB8A     		ldrh	r3, [r5, #20]
 380              	.LVL29:
 530:usb_driver/Src/usb_core.c ****   ControlState = (save_wLength <= Length) ? LAST_IN_DATA : IN_DATA;
 381              		.loc 1 530 3 is_stmt 1 view .LVU107
 382              		.loc 1 530 58 is_stmt 0 view .LVU108
 383 0012 9C42     		cmp	r4, r3
 384 0014 3ED8     		bhi	.L37
 385 0016 0427     		movs	r7, #4
 386              	.L35:
 387              	.LVL30:
 531:usb_driver/Src/usb_core.c **** 
 532:usb_driver/Src/usb_core.c ****   if (Length > save_wLength)
 388              		.loc 1 532 3 is_stmt 1 discriminator 4 view .LVU109
 389              		.loc 1 532 6 is_stmt 0 discriminator 4 view .LVU110
 390 0018 9C42     		cmp	r4, r3
 391 001a 00D3     		bcc	.L36
 529:usb_driver/Src/usb_core.c ****   ControlState = (save_wLength <= Length) ? LAST_IN_DATA : IN_DATA;
 392              		.loc 1 529 10 view .LVU111
 393 001c 1C46     		mov	r4, r3
 394              	.LVL31:
 395              	.L36:
 533:usb_driver/Src/usb_core.c ****   {
 534:usb_driver/Src/usb_core.c ****     Length = save_wLength;
ARM GAS  /tmp/ccIB1023.s 			page 18


 535:usb_driver/Src/usb_core.c ****   }
 536:usb_driver/Src/usb_core.c **** 
 537:usb_driver/Src/usb_core.c ****   DataBuffer = (*pEPinfo->CopyData)(Length);
 396              		.loc 1 537 3 is_stmt 1 view .LVU112
 397              		.loc 1 537 17 is_stmt 0 view .LVU113
 398 001e A4B2     		uxth	r4, r4
 399              	.LVL32:
 400              		.loc 1 537 17 view .LVU114
 401 0020 AB69     		ldr	r3, [r5, #24]
 402 0022 2046     		mov	r0, r4
 403 0024 9847     		blx	r3
 404              	.LVL33:
 405              		.loc 1 537 17 view .LVU115
 406 0026 0646     		mov	r6, r0
 407              	.LVL34:
 538:usb_driver/Src/usb_core.c ****   
 539:usb_driver/Src/usb_core.c ****   UserToPMABufferCopy(DataBuffer, GetEPTxAddr(ENDP0), Length);
 408              		.loc 1 539 3 is_stmt 1 view .LVU116
 409 0028 0020     		movs	r0, #0
 410              	.LVL35:
 411              		.loc 1 539 3 is_stmt 0 view .LVU117
 412 002a FFF7FEFF 		bl	GetEPTxAddr
 413              	.LVL36:
 414 002e 0146     		mov	r1, r0
 415 0030 2246     		mov	r2, r4
 416 0032 3046     		mov	r0, r6
 417 0034 FFF7FEFF 		bl	UserToPMABufferCopy
 418              	.LVL37:
 540:usb_driver/Src/usb_core.c **** 
 541:usb_driver/Src/usb_core.c ****   SetEPTxCount(ENDP0, Length);
 419              		.loc 1 541 3 is_stmt 1 view .LVU118
 420 0038 2146     		mov	r1, r4
 421 003a 0020     		movs	r0, #0
 422 003c FFF7FEFF 		bl	SetEPTxCount
 423              	.LVL38:
 542:usb_driver/Src/usb_core.c **** 
 543:usb_driver/Src/usb_core.c ****   pEPinfo->Usb_wLength -= Length;
 424              		.loc 1 543 3 view .LVU119
 425              		.loc 1 543 24 is_stmt 0 view .LVU120
 426 0040 2B8A     		ldrh	r3, [r5, #16]
 427 0042 1B1B     		subs	r3, r3, r4
 428 0044 2B82     		strh	r3, [r5, #16]	@ movhi
 544:usb_driver/Src/usb_core.c ****   pEPinfo->Usb_wOffset += Length;
 429              		.loc 1 544 3 is_stmt 1 view .LVU121
 430              		.loc 1 544 24 is_stmt 0 view .LVU122
 431 0046 6B8A     		ldrh	r3, [r5, #18]
 432 0048 1C44     		add	r4, r4, r3
 433 004a 6C82     		strh	r4, [r5, #18]	@ movhi
 545:usb_driver/Src/usb_core.c ****   vSetEPTxStatus(EP_TX_VALID);
 434              		.loc 1 545 3 is_stmt 1 view .LVU123
 435 004c 134B     		ldr	r3, .L41+4
 436 004e 3022     		movs	r2, #48
 437 0050 1A80     		strh	r2, [r3]	@ movhi
 546:usb_driver/Src/usb_core.c **** 
 547:usb_driver/Src/usb_core.c ****   USB_StatusOut();/* Expect the host to abort the data IN stage */
 438              		.loc 1 547 3 view .LVU124
 439 0052 134B     		ldr	r3, .L41+8
ARM GAS  /tmp/ccIB1023.s 			page 19


 440 0054 4FF44052 		mov	r2, #12288
 441 0058 1A80     		strh	r2, [r3]	@ movhi
 442              	.LVL39:
 443              	.L34:
 548:usb_driver/Src/usb_core.c **** 
 549:usb_driver/Src/usb_core.c **** Expect_Status_Out:
 550:usb_driver/Src/usb_core.c ****   pInformation->ControlState = ControlState;
 444              		.loc 1 550 3 view .LVU125
 445              		.loc 1 550 15 is_stmt 0 view .LVU126
 446 005a 0F4B     		ldr	r3, .L41
 447 005c 1B68     		ldr	r3, [r3]
 448              		.loc 1 550 30 view .LVU127
 449 005e 1F72     		strb	r7, [r3, #8]
 551:usb_driver/Src/usb_core.c **** }
 450              		.loc 1 551 1 view .LVU128
 451 0060 F8BD     		pop	{r3, r4, r5, r6, r7, pc}
 452              	.LVL40:
 453              	.L39:
 511:usb_driver/Src/usb_core.c ****     {
 454              		.loc 1 511 5 is_stmt 1 view .LVU129
 511:usb_driver/Src/usb_core.c ****     {
 455              		.loc 1 511 31 is_stmt 0 view .LVU130
 456 0062 104B     		ldr	r3, .L41+12
 457              	.LVL41:
 511:usb_driver/Src/usb_core.c ****     {
 458              		.loc 1 511 31 view .LVU131
 459 0064 1B78     		ldrb	r3, [r3]	@ zero_extendqisi2
 511:usb_driver/Src/usb_core.c ****     {
 460              		.loc 1 511 7 view .LVU132
 461 0066 012B     		cmp	r3, #1
 462 0068 04D0     		beq	.L40
 521:usb_driver/Src/usb_core.c ****       vSetEPTxStatus(EP_TX_STALL);
 463              		.loc 1 521 7 is_stmt 1 view .LVU133
 464              	.LVL42:
 522:usb_driver/Src/usb_core.c ****  
 465              		.loc 1 522 7 view .LVU134
 466 006a 0C4B     		ldr	r3, .L41+4
 467 006c 1022     		movs	r2, #16
 468 006e 1A80     		strh	r2, [r3]	@ movhi
 521:usb_driver/Src/usb_core.c ****       vSetEPTxStatus(EP_TX_STALL);
 469              		.loc 1 521 20 is_stmt 0 view .LVU135
 470 0070 0727     		movs	r7, #7
 526:usb_driver/Src/usb_core.c ****   }
 471              		.loc 1 526 5 is_stmt 1 view .LVU136
 472 0072 F2E7     		b	.L34
 473              	.LVL43:
 474              	.L40:
 514:usb_driver/Src/usb_core.c ****       ControlState = LAST_IN_DATA;
 475              		.loc 1 514 7 view .LVU137
 476 0074 0C4B     		ldr	r3, .L41+16
 477 0076 D3F8502C 		ldr	r2, [r3, #3152]
 478 007a 92B2     		uxth	r2, r2
 479 007c 0B4B     		ldr	r3, .L41+20
 480 007e 1344     		add	r3, r3, r2
 481 0080 5B00     		lsls	r3, r3, #1
 482 0082 0022     		movs	r2, #0
 483 0084 1A60     		str	r2, [r3]
ARM GAS  /tmp/ccIB1023.s 			page 20


 484              	.LVL44:
 514:usb_driver/Src/usb_core.c ****       ControlState = LAST_IN_DATA;
 485              		.loc 1 514 7 view .LVU138
 486 0086 054B     		ldr	r3, .L41+4
 487 0088 3021     		movs	r1, #48
 488 008a 1980     		strh	r1, [r3]	@ movhi
 514:usb_driver/Src/usb_core.c ****       ControlState = LAST_IN_DATA;
 489              		.loc 1 514 24 view .LVU139
 515:usb_driver/Src/usb_core.c ****       Data_Mul_MaxPacketSize = FALSE;
 490              		.loc 1 515 7 view .LVU140
 491              	.LVL45:
 516:usb_driver/Src/usb_core.c ****     }
 492              		.loc 1 516 7 view .LVU141
 516:usb_driver/Src/usb_core.c ****     }
 493              		.loc 1 516 30 is_stmt 0 view .LVU142
 494 008c 054B     		ldr	r3, .L41+12
 495 008e 1A70     		strb	r2, [r3]
 515:usb_driver/Src/usb_core.c ****       Data_Mul_MaxPacketSize = FALSE;
 496              		.loc 1 515 20 view .LVU143
 497 0090 0427     		movs	r7, #4
 498 0092 E2E7     		b	.L34
 499              	.LVL46:
 500              	.L37:
 530:usb_driver/Src/usb_core.c **** 
 501              		.loc 1 530 58 view .LVU144
 502 0094 0227     		movs	r7, #2
 503 0096 BFE7     		b	.L35
 504              	.L42:
 505              		.align	2
 506              	.L41:
 507 0098 00000000 		.word	pInformation
 508 009c 00000000 		.word	SaveTState
 509 00a0 00000000 		.word	SaveRState
 510 00a4 00000000 		.word	.LANCHOR1
 511 00a8 00500040 		.word	1073762304
 512 00ac 02300020 		.word	536883202
 513              		.cfi_endproc
 514              	.LFE66:
 516              		.section	.text.Data_Setup0,"ax",%progbits
 517              		.align	1
 518              		.syntax unified
 519              		.thumb
 520              		.thumb_func
 521              		.fpu softvfp
 523              	Data_Setup0:
 524              	.LFB68:
 552:usb_driver/Src/usb_core.c **** 
 553:usb_driver/Src/usb_core.c **** /*******************************************************************************
 554:usb_driver/Src/usb_core.c **** * Function Name  : NoData_Setup0.
 555:usb_driver/Src/usb_core.c **** * Description    : Proceed the processing of setup request without data stage.
 556:usb_driver/Src/usb_core.c **** * Input          : None.
 557:usb_driver/Src/usb_core.c **** * Output         : None.
 558:usb_driver/Src/usb_core.c **** * Return         : None.
 559:usb_driver/Src/usb_core.c **** *******************************************************************************/
 560:usb_driver/Src/usb_core.c **** void NoData_Setup0(void)
 561:usb_driver/Src/usb_core.c **** {
 562:usb_driver/Src/usb_core.c ****   RESULT Result = USB_UNSUPPORT;
ARM GAS  /tmp/ccIB1023.s 			page 21


 563:usb_driver/Src/usb_core.c ****   uint32_t RequestNo = pInformation->USBbRequest;
 564:usb_driver/Src/usb_core.c ****   uint32_t ControlState;
 565:usb_driver/Src/usb_core.c **** 
 566:usb_driver/Src/usb_core.c ****   if (Type_Recipient == (STANDARD_REQUEST | DEVICE_RECIPIENT))
 567:usb_driver/Src/usb_core.c ****   {
 568:usb_driver/Src/usb_core.c ****     /* Device Request*/
 569:usb_driver/Src/usb_core.c ****     /* SET_CONFIGURATION*/
 570:usb_driver/Src/usb_core.c ****     if (RequestNo == SET_CONFIGURATION)
 571:usb_driver/Src/usb_core.c ****     {
 572:usb_driver/Src/usb_core.c ****       Result = Standard_SetConfiguration();
 573:usb_driver/Src/usb_core.c ****     }
 574:usb_driver/Src/usb_core.c **** 
 575:usb_driver/Src/usb_core.c ****     /*SET ADDRESS*/
 576:usb_driver/Src/usb_core.c ****     else if (RequestNo == SET_ADDRESS)
 577:usb_driver/Src/usb_core.c ****     {
 578:usb_driver/Src/usb_core.c ****       if ((pInformation->USBwValue0 > 127) || (pInformation->USBwValue1 != 0)
 579:usb_driver/Src/usb_core.c ****           || (pInformation->USBwIndex != 0)
 580:usb_driver/Src/usb_core.c ****           || (pInformation->Current_Configuration != 0))
 581:usb_driver/Src/usb_core.c ****         /* Device Address should be 127 or less*/
 582:usb_driver/Src/usb_core.c ****       {
 583:usb_driver/Src/usb_core.c ****         ControlState = STALLED;
 584:usb_driver/Src/usb_core.c ****         goto exit_NoData_Setup0;
 585:usb_driver/Src/usb_core.c ****       }
 586:usb_driver/Src/usb_core.c ****       else
 587:usb_driver/Src/usb_core.c ****       {
 588:usb_driver/Src/usb_core.c ****         Result = USB_SUCCESS;
 589:usb_driver/Src/usb_core.c ****       }
 590:usb_driver/Src/usb_core.c ****     }
 591:usb_driver/Src/usb_core.c ****     /*SET FEATURE for Device*/
 592:usb_driver/Src/usb_core.c ****     else if (RequestNo == SET_FEATURE)
 593:usb_driver/Src/usb_core.c ****     {
 594:usb_driver/Src/usb_core.c ****       if ((pInformation->USBwValue0 == DEVICE_REMOTE_WAKEUP) \
 595:usb_driver/Src/usb_core.c ****           && (pInformation->USBwIndex == 0))
 596:usb_driver/Src/usb_core.c ****       {
 597:usb_driver/Src/usb_core.c ****         Result = Standard_SetDeviceFeature();
 598:usb_driver/Src/usb_core.c ****       }
 599:usb_driver/Src/usb_core.c ****       else
 600:usb_driver/Src/usb_core.c ****       {
 601:usb_driver/Src/usb_core.c ****         Result = USB_UNSUPPORT;
 602:usb_driver/Src/usb_core.c ****       }
 603:usb_driver/Src/usb_core.c ****     }
 604:usb_driver/Src/usb_core.c ****     /*Clear FEATURE for Device */
 605:usb_driver/Src/usb_core.c ****     else if (RequestNo == CLEAR_FEATURE)
 606:usb_driver/Src/usb_core.c ****     {
 607:usb_driver/Src/usb_core.c ****       if (pInformation->USBwValue0 == DEVICE_REMOTE_WAKEUP
 608:usb_driver/Src/usb_core.c ****           && pInformation->USBwIndex == 0
 609:usb_driver/Src/usb_core.c ****           && ValBit(pInformation->Current_Feature, 5))
 610:usb_driver/Src/usb_core.c ****       {
 611:usb_driver/Src/usb_core.c ****         Result = Standard_ClearFeature();
 612:usb_driver/Src/usb_core.c ****       }
 613:usb_driver/Src/usb_core.c ****       else
 614:usb_driver/Src/usb_core.c ****       {
 615:usb_driver/Src/usb_core.c ****         Result = USB_UNSUPPORT;
 616:usb_driver/Src/usb_core.c ****       }
 617:usb_driver/Src/usb_core.c ****     }
 618:usb_driver/Src/usb_core.c **** 
 619:usb_driver/Src/usb_core.c ****   }
ARM GAS  /tmp/ccIB1023.s 			page 22


 620:usb_driver/Src/usb_core.c **** 
 621:usb_driver/Src/usb_core.c ****   /* Interface Request*/
 622:usb_driver/Src/usb_core.c ****   else if (Type_Recipient == (STANDARD_REQUEST | INTERFACE_RECIPIENT))
 623:usb_driver/Src/usb_core.c ****   {
 624:usb_driver/Src/usb_core.c ****     /*SET INTERFACE*/
 625:usb_driver/Src/usb_core.c ****     if (RequestNo == SET_INTERFACE)
 626:usb_driver/Src/usb_core.c ****     {
 627:usb_driver/Src/usb_core.c ****       Result = Standard_SetInterface();
 628:usb_driver/Src/usb_core.c ****     }
 629:usb_driver/Src/usb_core.c ****   }
 630:usb_driver/Src/usb_core.c **** 
 631:usb_driver/Src/usb_core.c ****   /* EndPoint Request*/
 632:usb_driver/Src/usb_core.c ****   else if (Type_Recipient == (STANDARD_REQUEST | ENDPOINT_RECIPIENT))
 633:usb_driver/Src/usb_core.c ****   {
 634:usb_driver/Src/usb_core.c ****     /*CLEAR FEATURE for EndPoint*/
 635:usb_driver/Src/usb_core.c ****     if (RequestNo == CLEAR_FEATURE)
 636:usb_driver/Src/usb_core.c ****     {
 637:usb_driver/Src/usb_core.c ****       Result = Standard_ClearFeature();
 638:usb_driver/Src/usb_core.c ****     }
 639:usb_driver/Src/usb_core.c ****     /* SET FEATURE for EndPoint*/
 640:usb_driver/Src/usb_core.c ****     else if (RequestNo == SET_FEATURE)
 641:usb_driver/Src/usb_core.c ****     {
 642:usb_driver/Src/usb_core.c ****       Result = Standard_SetEndPointFeature();
 643:usb_driver/Src/usb_core.c ****     }
 644:usb_driver/Src/usb_core.c ****   }
 645:usb_driver/Src/usb_core.c ****   else
 646:usb_driver/Src/usb_core.c ****   {
 647:usb_driver/Src/usb_core.c ****     Result = USB_UNSUPPORT;
 648:usb_driver/Src/usb_core.c ****   }
 649:usb_driver/Src/usb_core.c **** 
 650:usb_driver/Src/usb_core.c **** 
 651:usb_driver/Src/usb_core.c ****   if (Result != USB_SUCCESS)
 652:usb_driver/Src/usb_core.c ****   {
 653:usb_driver/Src/usb_core.c ****     Result = (*pProperty->Class_NoData_Setup)(RequestNo);
 654:usb_driver/Src/usb_core.c ****     if (Result == USB_NOT_READY)
 655:usb_driver/Src/usb_core.c ****     {
 656:usb_driver/Src/usb_core.c ****       ControlState = PAUSE;
 657:usb_driver/Src/usb_core.c ****       goto exit_NoData_Setup0;
 658:usb_driver/Src/usb_core.c ****     }
 659:usb_driver/Src/usb_core.c ****   }
 660:usb_driver/Src/usb_core.c **** 
 661:usb_driver/Src/usb_core.c ****   if (Result != USB_SUCCESS)
 662:usb_driver/Src/usb_core.c ****   {
 663:usb_driver/Src/usb_core.c ****     ControlState = STALLED;
 664:usb_driver/Src/usb_core.c ****     goto exit_NoData_Setup0;
 665:usb_driver/Src/usb_core.c ****   }
 666:usb_driver/Src/usb_core.c **** 
 667:usb_driver/Src/usb_core.c ****   ControlState = WAIT_STATUS_IN;/* After no data stage SETUP */
 668:usb_driver/Src/usb_core.c **** 
 669:usb_driver/Src/usb_core.c ****   USB_StatusIn();
 670:usb_driver/Src/usb_core.c **** 
 671:usb_driver/Src/usb_core.c **** exit_NoData_Setup0:
 672:usb_driver/Src/usb_core.c ****   pInformation->ControlState = ControlState;
 673:usb_driver/Src/usb_core.c ****   return;
 674:usb_driver/Src/usb_core.c **** }
 675:usb_driver/Src/usb_core.c **** 
 676:usb_driver/Src/usb_core.c **** /*******************************************************************************
ARM GAS  /tmp/ccIB1023.s 			page 23


 677:usb_driver/Src/usb_core.c **** * Function Name  : Data_Setup0.
 678:usb_driver/Src/usb_core.c **** * Description    : Proceed the processing of setup request with data stage.
 679:usb_driver/Src/usb_core.c **** * Input          : None.
 680:usb_driver/Src/usb_core.c **** * Output         : None.
 681:usb_driver/Src/usb_core.c **** * Return         : None.
 682:usb_driver/Src/usb_core.c **** *******************************************************************************/
 683:usb_driver/Src/usb_core.c **** void Data_Setup0(void)
 684:usb_driver/Src/usb_core.c **** {
 525              		.loc 1 684 1 is_stmt 1 view -0
 526              		.cfi_startproc
 527              		@ args = 0, pretend = 0, frame = 8
 528              		@ frame_needed = 0, uses_anonymous_args = 0
 529 0000 10B5     		push	{r4, lr}
 530              	.LCFI4:
 531              		.cfi_def_cfa_offset 8
 532              		.cfi_offset 4, -8
 533              		.cfi_offset 14, -4
 534 0002 82B0     		sub	sp, sp, #8
 535              	.LCFI5:
 536              		.cfi_def_cfa_offset 16
 685:usb_driver/Src/usb_core.c ****   uint8_t *(*CopyRoutine)(uint16_t);
 537              		.loc 1 685 3 view .LVU146
 686:usb_driver/Src/usb_core.c ****   RESULT Result;
 538              		.loc 1 686 3 view .LVU147
 687:usb_driver/Src/usb_core.c ****   uint32_t Request_No = pInformation->USBbRequest;
 539              		.loc 1 687 3 view .LVU148
 540              		.loc 1 687 37 is_stmt 0 view .LVU149
 541 0004 774B     		ldr	r3, .L80
 542 0006 1A68     		ldr	r2, [r3]
 543 0008 5378     		ldrb	r3, [r2, #1]	@ zero_extendqisi2
 544              	.LVL47:
 688:usb_driver/Src/usb_core.c **** 
 689:usb_driver/Src/usb_core.c ****   uint32_t Related_Endpoint, Reserved;
 545              		.loc 1 689 3 is_stmt 1 view .LVU150
 690:usb_driver/Src/usb_core.c ****   uint32_t wOffset, Status;
 546              		.loc 1 690 3 view .LVU151
 691:usb_driver/Src/usb_core.c **** 
 692:usb_driver/Src/usb_core.c **** 
 693:usb_driver/Src/usb_core.c **** 
 694:usb_driver/Src/usb_core.c ****   CopyRoutine = NULL;
 547              		.loc 1 694 3 view .LVU152
 695:usb_driver/Src/usb_core.c ****   wOffset = 0;
 548              		.loc 1 695 3 view .LVU153
 696:usb_driver/Src/usb_core.c **** 
 697:usb_driver/Src/usb_core.c ****   /*GET DESCRIPTOR*/
 698:usb_driver/Src/usb_core.c ****   if (Request_No == GET_DESCRIPTOR)
 549              		.loc 1 698 3 view .LVU154
 550              		.loc 1 698 6 is_stmt 0 view .LVU155
 551 000a 062B     		cmp	r3, #6
 552 000c 31D0     		beq	.L69
 699:usb_driver/Src/usb_core.c ****   {
 700:usb_driver/Src/usb_core.c ****     if (Type_Recipient == (STANDARD_REQUEST | DEVICE_RECIPIENT))
 701:usb_driver/Src/usb_core.c ****     {
 702:usb_driver/Src/usb_core.c ****       uint8_t wValue1 = pInformation->USBwValue1;
 703:usb_driver/Src/usb_core.c ****       if (wValue1 == DEVICE_DESCRIPTOR)
 704:usb_driver/Src/usb_core.c ****       {
 705:usb_driver/Src/usb_core.c ****         CopyRoutine = pProperty->GetDeviceDescriptor;
ARM GAS  /tmp/ccIB1023.s 			page 24


 706:usb_driver/Src/usb_core.c ****       }
 707:usb_driver/Src/usb_core.c ****       else if (wValue1 == CONFIG_DESCRIPTOR)
 708:usb_driver/Src/usb_core.c ****       {
 709:usb_driver/Src/usb_core.c ****         CopyRoutine = pProperty->GetConfigDescriptor;
 710:usb_driver/Src/usb_core.c ****       }
 711:usb_driver/Src/usb_core.c ****       else if (wValue1 == STRING_DESCRIPTOR)
 712:usb_driver/Src/usb_core.c ****       {
 713:usb_driver/Src/usb_core.c ****         CopyRoutine = pProperty->GetStringDescriptor;
 714:usb_driver/Src/usb_core.c ****       }  /* End of GET_DESCRIPTOR */
 715:usb_driver/Src/usb_core.c ****     }
 716:usb_driver/Src/usb_core.c ****   }
 717:usb_driver/Src/usb_core.c **** 
 718:usb_driver/Src/usb_core.c ****   /*GET STATUS*/
 719:usb_driver/Src/usb_core.c ****   else if ((Request_No == GET_STATUS) && (pInformation->USBwValue == 0)
 553              		.loc 1 719 8 is_stmt 1 view .LVU156
 554              		.loc 1 719 11 is_stmt 0 view .LVU157
 555 000e 3BB9     		cbnz	r3, .L49
 556              		.loc 1 719 57 discriminator 1 view .LVU158
 557 0010 5188     		ldrh	r1, [r2, #2]
 558              		.loc 1 719 39 discriminator 1 view .LVU159
 559 0012 29B9     		cbnz	r1, .L49
 720:usb_driver/Src/usb_core.c ****            && (pInformation->USBwLength == 0x0002)
 721:usb_driver/Src/usb_core.c ****            && (pInformation->USBwIndex1 == 0))
 560              		.loc 1 721 12 view .LVU160
 561 0014 5168     		ldr	r1, [r2, #4]
 562 0016 21F47F41 		bic	r1, r1, #65280
 563 001a B1F5003F 		cmp	r1, #131072
 564 001e 3FD0     		beq	.L70
 565              	.L49:
 722:usb_driver/Src/usb_core.c ****   {
 723:usb_driver/Src/usb_core.c ****     /* GET STATUS for Device*/
 724:usb_driver/Src/usb_core.c ****     if ((Type_Recipient == (STANDARD_REQUEST | DEVICE_RECIPIENT))
 725:usb_driver/Src/usb_core.c ****         && (pInformation->USBwIndex == 0))
 726:usb_driver/Src/usb_core.c ****     {
 727:usb_driver/Src/usb_core.c ****       CopyRoutine = Standard_GetStatus;
 728:usb_driver/Src/usb_core.c ****     }
 729:usb_driver/Src/usb_core.c **** 
 730:usb_driver/Src/usb_core.c ****     /* GET STATUS for Interface*/
 731:usb_driver/Src/usb_core.c ****     else if (Type_Recipient == (STANDARD_REQUEST | INTERFACE_RECIPIENT))
 732:usb_driver/Src/usb_core.c ****     {
 733:usb_driver/Src/usb_core.c ****       if (((*pProperty->Class_Get_Interface_Setting)(pInformation->USBwIndex0, 0) == USB_SUCCESS)
 734:usb_driver/Src/usb_core.c ****           && (pInformation->Current_Configuration != 0))
 735:usb_driver/Src/usb_core.c ****       {
 736:usb_driver/Src/usb_core.c ****         CopyRoutine = Standard_GetStatus;
 737:usb_driver/Src/usb_core.c ****       }
 738:usb_driver/Src/usb_core.c ****     }
 739:usb_driver/Src/usb_core.c **** 
 740:usb_driver/Src/usb_core.c ****     /* GET STATUS for EndPoint*/
 741:usb_driver/Src/usb_core.c ****     else if (Type_Recipient == (STANDARD_REQUEST | ENDPOINT_RECIPIENT))
 742:usb_driver/Src/usb_core.c ****     {
 743:usb_driver/Src/usb_core.c ****       Related_Endpoint = (pInformation->USBwIndex0 & 0x0f);
 744:usb_driver/Src/usb_core.c ****       Reserved = pInformation->USBwIndex0 & 0x70;
 745:usb_driver/Src/usb_core.c **** 
 746:usb_driver/Src/usb_core.c ****       if (ValBit(pInformation->USBwIndex0, 7))
 747:usb_driver/Src/usb_core.c ****       {
 748:usb_driver/Src/usb_core.c ****         /*Get Status of endpoint & stall the request if the related_ENdpoint
 749:usb_driver/Src/usb_core.c ****         is Disabled*/
ARM GAS  /tmp/ccIB1023.s 			page 25


 750:usb_driver/Src/usb_core.c ****         Status = _GetEPTxStatus(Related_Endpoint);
 751:usb_driver/Src/usb_core.c ****       }
 752:usb_driver/Src/usb_core.c ****       else
 753:usb_driver/Src/usb_core.c ****       {
 754:usb_driver/Src/usb_core.c ****         Status = _GetEPRxStatus(Related_Endpoint);
 755:usb_driver/Src/usb_core.c ****       }
 756:usb_driver/Src/usb_core.c **** 
 757:usb_driver/Src/usb_core.c ****       if ((Related_Endpoint < Device_Table.Total_Endpoint) && (Reserved == 0)
 758:usb_driver/Src/usb_core.c ****           && (Status != 0))
 759:usb_driver/Src/usb_core.c ****       {
 760:usb_driver/Src/usb_core.c ****         CopyRoutine = Standard_GetStatus;
 761:usb_driver/Src/usb_core.c ****       }
 762:usb_driver/Src/usb_core.c ****     }
 763:usb_driver/Src/usb_core.c **** 
 764:usb_driver/Src/usb_core.c ****   }
 765:usb_driver/Src/usb_core.c **** 
 766:usb_driver/Src/usb_core.c ****   /*GET CONFIGURATION*/
 767:usb_driver/Src/usb_core.c ****   else if (Request_No == GET_CONFIGURATION)
 566              		.loc 1 767 8 is_stmt 1 view .LVU161
 567              		.loc 1 767 11 is_stmt 0 view .LVU162
 568 0020 082B     		cmp	r3, #8
 569 0022 7AD0     		beq	.L71
 768:usb_driver/Src/usb_core.c ****   {
 769:usb_driver/Src/usb_core.c ****     if (Type_Recipient == (STANDARD_REQUEST | DEVICE_RECIPIENT))
 770:usb_driver/Src/usb_core.c ****     {
 771:usb_driver/Src/usb_core.c ****       CopyRoutine = Standard_GetConfiguration;
 772:usb_driver/Src/usb_core.c ****     }
 773:usb_driver/Src/usb_core.c ****   }
 774:usb_driver/Src/usb_core.c ****   /*GET INTERFACE*/
 775:usb_driver/Src/usb_core.c ****   else if (Request_No == GET_INTERFACE)
 570              		.loc 1 775 8 is_stmt 1 view .LVU163
 571              		.loc 1 775 11 is_stmt 0 view .LVU164
 572 0024 0A2B     		cmp	r3, #10
 573 0026 00F08880 		beq	.L72
 574              	.LVL48:
 575              	.L45:
 776:usb_driver/Src/usb_core.c ****   {
 777:usb_driver/Src/usb_core.c ****     if ((Type_Recipient == (STANDARD_REQUEST | INTERFACE_RECIPIENT))
 778:usb_driver/Src/usb_core.c ****         && (pInformation->Current_Configuration != 0) && (pInformation->USBwValue == 0)
 779:usb_driver/Src/usb_core.c ****         && (pInformation->USBwIndex1 == 0) && (pInformation->USBwLength == 0x0001)
 780:usb_driver/Src/usb_core.c ****         && ((*pProperty->Class_Get_Interface_Setting)(pInformation->USBwIndex0, 0) == USB_SUCCESS))
 781:usb_driver/Src/usb_core.c ****     {
 782:usb_driver/Src/usb_core.c ****       CopyRoutine = Standard_GetInterface;
 783:usb_driver/Src/usb_core.c ****     }
 784:usb_driver/Src/usb_core.c **** 
 785:usb_driver/Src/usb_core.c ****   }
 786:usb_driver/Src/usb_core.c ****   
 787:usb_driver/Src/usb_core.c ****   if (CopyRoutine)
 788:usb_driver/Src/usb_core.c ****   {
 789:usb_driver/Src/usb_core.c ****     pInformation->Ctrl_Info.Usb_wOffset = wOffset;
 790:usb_driver/Src/usb_core.c ****     pInformation->Ctrl_Info.CopyData = CopyRoutine;
 791:usb_driver/Src/usb_core.c ****     /* sb in the original the cast to word was directly */
 792:usb_driver/Src/usb_core.c ****     /* now the cast is made step by step */
 793:usb_driver/Src/usb_core.c ****     (*CopyRoutine)(0);
 794:usb_driver/Src/usb_core.c ****     Result = USB_SUCCESS;
 795:usb_driver/Src/usb_core.c ****   }
 796:usb_driver/Src/usb_core.c ****   else
ARM GAS  /tmp/ccIB1023.s 			page 26


 797:usb_driver/Src/usb_core.c ****   {
 798:usb_driver/Src/usb_core.c ****     Result = (*pProperty->Class_Data_Setup)(pInformation->USBbRequest);
 576              		.loc 1 798 5 is_stmt 1 view .LVU165
 577              		.loc 1 798 25 is_stmt 0 view .LVU166
 578 002a 6F4B     		ldr	r3, .L80+4
 579 002c 1B68     		ldr	r3, [r3]
 580              		.loc 1 798 57 view .LVU167
 581 002e 6D4A     		ldr	r2, .L80
 582 0030 1268     		ldr	r2, [r2]
 583              		.loc 1 798 15 view .LVU168
 584 0032 1B69     		ldr	r3, [r3, #16]
 585 0034 5078     		ldrb	r0, [r2, #1]	@ zero_extendqisi2
 586 0036 9847     		blx	r3
 587              	.LVL49:
 799:usb_driver/Src/usb_core.c ****     if (Result == USB_NOT_READY)
 588              		.loc 1 799 5 is_stmt 1 view .LVU169
 589              		.loc 1 799 8 is_stmt 0 view .LVU170
 590 0038 0328     		cmp	r0, #3
 591 003a 00F0A080 		beq	.L73
 592              	.LVL50:
 593              	.L55:
 800:usb_driver/Src/usb_core.c ****     {
 801:usb_driver/Src/usb_core.c ****       pInformation->ControlState = PAUSE;
 802:usb_driver/Src/usb_core.c ****       return;
 803:usb_driver/Src/usb_core.c ****     }
 804:usb_driver/Src/usb_core.c ****   }
 805:usb_driver/Src/usb_core.c **** 
 806:usb_driver/Src/usb_core.c ****   if (pInformation->Ctrl_Info.Usb_wLength == 0xFFFF)
 594              		.loc 1 806 3 is_stmt 1 view .LVU171
 595              		.loc 1 806 19 is_stmt 0 view .LVU172
 596 003e 694B     		ldr	r3, .L80
 597 0040 1B68     		ldr	r3, [r3]
 598              		.loc 1 806 30 view .LVU173
 599 0042 1A8A     		ldrh	r2, [r3, #16]
 600              		.loc 1 806 6 view .LVU174
 601 0044 4FF6FF71 		movw	r1, #65535
 602 0048 8A42     		cmp	r2, r1
 603 004a 00F09D80 		beq	.L74
 807:usb_driver/Src/usb_core.c ****   {
 808:usb_driver/Src/usb_core.c ****     /* Data is not ready, wait it */
 809:usb_driver/Src/usb_core.c ****     pInformation->ControlState = PAUSE;
 810:usb_driver/Src/usb_core.c ****     return;
 811:usb_driver/Src/usb_core.c ****   }
 812:usb_driver/Src/usb_core.c ****   if ((Result == USB_UNSUPPORT) || (pInformation->Ctrl_Info.Usb_wLength == 0))
 604              		.loc 1 812 3 is_stmt 1 view .LVU175
 605              		.loc 1 812 6 is_stmt 0 view .LVU176
 606 004e 0228     		cmp	r0, #2
 607 0050 00F09D80 		beq	.L58
 608              		.loc 1 812 33 discriminator 1 view .LVU177
 609 0054 002A     		cmp	r2, #0
 610 0056 00F09A80 		beq	.L58
 813:usb_driver/Src/usb_core.c ****   {
 814:usb_driver/Src/usb_core.c ****     /* Unsupported request */
 815:usb_driver/Src/usb_core.c ****     pInformation->ControlState = STALLED;
 816:usb_driver/Src/usb_core.c ****     return;
 817:usb_driver/Src/usb_core.c ****   }
 818:usb_driver/Src/usb_core.c **** 
ARM GAS  /tmp/ccIB1023.s 			page 27


 819:usb_driver/Src/usb_core.c **** 
 820:usb_driver/Src/usb_core.c ****   if (ValBit(pInformation->USBbmRequestType, 7))
 611              		.loc 1 820 3 is_stmt 1 view .LVU178
 612              		.loc 1 820 7 is_stmt 0 view .LVU179
 613 005a 93F90010 		ldrsb	r1, [r3]
 614              		.loc 1 820 6 view .LVU180
 615 005e 0029     		cmp	r1, #0
 616 0060 C0F29980 		blt	.L75
 821:usb_driver/Src/usb_core.c ****   {
 822:usb_driver/Src/usb_core.c ****     /* Device ==> Host */
 823:usb_driver/Src/usb_core.c ****     __IO uint32_t wLength = pInformation->USBwLength;
 824:usb_driver/Src/usb_core.c ****      
 825:usb_driver/Src/usb_core.c ****     /* Restrict the data length to be the one host asks for */
 826:usb_driver/Src/usb_core.c ****     if (pInformation->Ctrl_Info.Usb_wLength > wLength)
 827:usb_driver/Src/usb_core.c ****     {
 828:usb_driver/Src/usb_core.c ****       pInformation->Ctrl_Info.Usb_wLength = wLength;
 829:usb_driver/Src/usb_core.c ****     }
 830:usb_driver/Src/usb_core.c ****     
 831:usb_driver/Src/usb_core.c ****     else if (pInformation->Ctrl_Info.Usb_wLength < pInformation->USBwLength)
 832:usb_driver/Src/usb_core.c ****     {
 833:usb_driver/Src/usb_core.c ****       if (pInformation->Ctrl_Info.Usb_wLength < pProperty->MaxPacketSize)
 834:usb_driver/Src/usb_core.c ****       {
 835:usb_driver/Src/usb_core.c ****         Data_Mul_MaxPacketSize = FALSE;
 836:usb_driver/Src/usb_core.c ****       }
 837:usb_driver/Src/usb_core.c ****       else if ((pInformation->Ctrl_Info.Usb_wLength % pProperty->MaxPacketSize) == 0)
 838:usb_driver/Src/usb_core.c ****       {
 839:usb_driver/Src/usb_core.c ****         Data_Mul_MaxPacketSize = TRUE;
 840:usb_driver/Src/usb_core.c ****       }
 841:usb_driver/Src/usb_core.c ****     }   
 842:usb_driver/Src/usb_core.c **** 
 843:usb_driver/Src/usb_core.c ****     pInformation->Ctrl_Info.PacketSize = pProperty->MaxPacketSize;
 844:usb_driver/Src/usb_core.c ****     DataStageIn();
 845:usb_driver/Src/usb_core.c ****   }
 846:usb_driver/Src/usb_core.c ****   else
 847:usb_driver/Src/usb_core.c ****   {
 848:usb_driver/Src/usb_core.c ****     pInformation->ControlState = OUT_DATA;
 617              		.loc 1 848 5 is_stmt 1 view .LVU181
 618              		.loc 1 848 32 is_stmt 0 view .LVU182
 619 0064 0322     		movs	r2, #3
 620 0066 1A72     		strb	r2, [r3, #8]
 849:usb_driver/Src/usb_core.c ****     vSetEPRxStatus(EP_RX_VALID); /* enable for next data reception */
 621              		.loc 1 849 5 is_stmt 1 view .LVU183
 622 0068 604B     		ldr	r3, .L80+8
 623 006a 4FF44052 		mov	r2, #12288
 624 006e 1A80     		strh	r2, [r3]	@ movhi
 625 0070 8FE0     		b	.L43
 626              	.LVL51:
 627              	.L69:
 700:usb_driver/Src/usb_core.c ****     {
 628              		.loc 1 700 5 view .LVU184
 700:usb_driver/Src/usb_core.c ****     {
 629              		.loc 1 700 9 is_stmt 0 view .LVU185
 630 0072 1378     		ldrb	r3, [r2]	@ zero_extendqisi2
 631              	.LVL52:
 700:usb_driver/Src/usb_core.c ****     {
 632              		.loc 1 700 8 view .LVU186
 633 0074 13F07F0F 		tst	r3, #127
ARM GAS  /tmp/ccIB1023.s 			page 28


 634 0078 D7D1     		bne	.L45
 635              	.LBB5:
 702:usb_driver/Src/usb_core.c ****       if (wValue1 == DEVICE_DESCRIPTOR)
 636              		.loc 1 702 7 is_stmt 1 view .LVU187
 702:usb_driver/Src/usb_core.c ****       if (wValue1 == DEVICE_DESCRIPTOR)
 637              		.loc 1 702 15 is_stmt 0 view .LVU188
 638 007a 9378     		ldrb	r3, [r2, #2]	@ zero_extendqisi2
 639              	.LVL53:
 703:usb_driver/Src/usb_core.c ****       {
 640              		.loc 1 703 7 is_stmt 1 view .LVU189
 703:usb_driver/Src/usb_core.c ****       {
 641              		.loc 1 703 10 is_stmt 0 view .LVU190
 642 007c 012B     		cmp	r3, #1
 643 007e 07D0     		beq	.L76
 707:usb_driver/Src/usb_core.c ****       {
 644              		.loc 1 707 12 is_stmt 1 view .LVU191
 707:usb_driver/Src/usb_core.c ****       {
 645              		.loc 1 707 15 is_stmt 0 view .LVU192
 646 0080 022B     		cmp	r3, #2
 647 0082 09D0     		beq	.L77
 711:usb_driver/Src/usb_core.c ****       {
 648              		.loc 1 711 12 is_stmt 1 view .LVU193
 711:usb_driver/Src/usb_core.c ****       {
 649              		.loc 1 711 15 is_stmt 0 view .LVU194
 650 0084 032B     		cmp	r3, #3
 651 0086 D0D1     		bne	.L45
 713:usb_driver/Src/usb_core.c ****       }  /* End of GET_DESCRIPTOR */
 652              		.loc 1 713 9 is_stmt 1 view .LVU195
 713:usb_driver/Src/usb_core.c ****       }  /* End of GET_DESCRIPTOR */
 653              		.loc 1 713 32 is_stmt 0 view .LVU196
 654 0088 574B     		ldr	r3, .L80+4
 655              	.LVL54:
 713:usb_driver/Src/usb_core.c ****       }  /* End of GET_DESCRIPTOR */
 656              		.loc 1 713 32 view .LVU197
 657 008a 1B68     		ldr	r3, [r3]
 713:usb_driver/Src/usb_core.c ****       }  /* End of GET_DESCRIPTOR */
 658              		.loc 1 713 21 view .LVU198
 659 008c 5B6A     		ldr	r3, [r3, #36]
 660              	.LVL55:
 713:usb_driver/Src/usb_core.c ****       }  /* End of GET_DESCRIPTOR */
 661              		.loc 1 713 21 view .LVU199
 662 008e 49E0     		b	.L47
 663              	.LVL56:
 664              	.L76:
 705:usb_driver/Src/usb_core.c ****       }
 665              		.loc 1 705 9 is_stmt 1 view .LVU200
 705:usb_driver/Src/usb_core.c ****       }
 666              		.loc 1 705 32 is_stmt 0 view .LVU201
 667 0090 554B     		ldr	r3, .L80+4
 668              	.LVL57:
 705:usb_driver/Src/usb_core.c ****       }
 669              		.loc 1 705 32 view .LVU202
 670 0092 1B68     		ldr	r3, [r3]
 705:usb_driver/Src/usb_core.c ****       }
 671              		.loc 1 705 21 view .LVU203
 672 0094 DB69     		ldr	r3, [r3, #28]
 673              	.LVL58:
ARM GAS  /tmp/ccIB1023.s 			page 29


 705:usb_driver/Src/usb_core.c ****       }
 674              		.loc 1 705 21 view .LVU204
 675 0096 45E0     		b	.L47
 676              	.LVL59:
 677              	.L77:
 709:usb_driver/Src/usb_core.c ****       }
 678              		.loc 1 709 9 is_stmt 1 view .LVU205
 709:usb_driver/Src/usb_core.c ****       }
 679              		.loc 1 709 32 is_stmt 0 view .LVU206
 680 0098 534B     		ldr	r3, .L80+4
 681              	.LVL60:
 709:usb_driver/Src/usb_core.c ****       }
 682              		.loc 1 709 32 view .LVU207
 683 009a 1B68     		ldr	r3, [r3]
 709:usb_driver/Src/usb_core.c ****       }
 684              		.loc 1 709 21 view .LVU208
 685 009c 1B6A     		ldr	r3, [r3, #32]
 686              	.LVL61:
 709:usb_driver/Src/usb_core.c ****       }
 687              		.loc 1 709 21 view .LVU209
 688 009e 41E0     		b	.L47
 689              	.LVL62:
 690              	.L70:
 709:usb_driver/Src/usb_core.c ****       }
 691              		.loc 1 709 21 view .LVU210
 692              	.LBE5:
 724:usb_driver/Src/usb_core.c ****         && (pInformation->USBwIndex == 0))
 693              		.loc 1 724 5 is_stmt 1 view .LVU211
 724:usb_driver/Src/usb_core.c ****         && (pInformation->USBwIndex == 0))
 694              		.loc 1 724 10 is_stmt 0 view .LVU212
 695 00a0 1378     		ldrb	r3, [r2]	@ zero_extendqisi2
 696              	.LVL63:
 724:usb_driver/Src/usb_core.c ****         && (pInformation->USBwIndex == 0))
 697              		.loc 1 724 8 view .LVU213
 698 00a2 13F07F03 		ands	r3, r3, #127
 699 00a6 02D1     		bne	.L50
 725:usb_driver/Src/usb_core.c ****     {
 700              		.loc 1 725 27 view .LVU214
 701 00a8 9188     		ldrh	r1, [r2, #4]
 725:usb_driver/Src/usb_core.c ****     {
 702              		.loc 1 725 9 view .LVU215
 703 00aa 0029     		cmp	r1, #0
 704 00ac 65D0     		beq	.L64
 705              	.L50:
 731:usb_driver/Src/usb_core.c ****     {
 706              		.loc 1 731 10 is_stmt 1 view .LVU216
 731:usb_driver/Src/usb_core.c ****     {
 707              		.loc 1 731 13 is_stmt 0 view .LVU217
 708 00ae 012B     		cmp	r3, #1
 709 00b0 1BD0     		beq	.L78
 741:usb_driver/Src/usb_core.c ****     {
 710              		.loc 1 741 10 is_stmt 1 view .LVU218
 741:usb_driver/Src/usb_core.c ****     {
 711              		.loc 1 741 13 is_stmt 0 view .LVU219
 712 00b2 022B     		cmp	r3, #2
 713 00b4 B9D1     		bne	.L45
 743:usb_driver/Src/usb_core.c ****       Reserved = pInformation->USBwIndex0 & 0x70;
ARM GAS  /tmp/ccIB1023.s 			page 30


 714              		.loc 1 743 7 is_stmt 1 view .LVU220
 743:usb_driver/Src/usb_core.c ****       Reserved = pInformation->USBwIndex0 & 0x70;
 715              		.loc 1 743 41 is_stmt 0 view .LVU221
 716 00b6 5379     		ldrb	r3, [r2, #5]	@ zero_extendqisi2
 717 00b8 03F00F02 		and	r2, r3, #15
 718              	.LVL64:
 744:usb_driver/Src/usb_core.c **** 
 719              		.loc 1 744 7 is_stmt 1 view .LVU222
 720 00bc 03F07000 		and	r0, r3, #112
 721              	.LVL65:
 746:usb_driver/Src/usb_core.c ****       {
 722              		.loc 1 746 7 view .LVU223
 746:usb_driver/Src/usb_core.c ****       {
 723              		.loc 1 746 10 is_stmt 0 view .LVU224
 724 00c0 13F0800F 		tst	r3, #128
 725 00c4 20D1     		bne	.L79
 754:usb_driver/Src/usb_core.c ****       }
 726              		.loc 1 754 9 is_stmt 1 view .LVU225
 754:usb_driver/Src/usb_core.c ****       }
 727              		.loc 1 754 18 is_stmt 0 view .LVU226
 728 00c6 9300     		lsls	r3, r2, #2
 729 00c8 03F18043 		add	r3, r3, #1073741824
 730 00cc 03F5B843 		add	r3, r3, #23552
 731 00d0 1B68     		ldr	r3, [r3]
 754:usb_driver/Src/usb_core.c ****       }
 732              		.loc 1 754 16 view .LVU227
 733 00d2 03F44053 		and	r3, r3, #12288
 734              	.LVL66:
 735              	.L53:
 757:usb_driver/Src/usb_core.c ****           && (Status != 0))
 736              		.loc 1 757 7 is_stmt 1 view .LVU228
 757:usb_driver/Src/usb_core.c ****           && (Status != 0))
 737              		.loc 1 757 43 is_stmt 0 view .LVU229
 738 00d6 4649     		ldr	r1, .L80+12
 739 00d8 0978     		ldrb	r1, [r1]	@ zero_extendqisi2
 757:usb_driver/Src/usb_core.c ****           && (Status != 0))
 740              		.loc 1 757 10 view .LVU230
 741 00da 9142     		cmp	r1, r2
 742 00dc A5D9     		bls	.L45
 757:usb_driver/Src/usb_core.c ****           && (Status != 0))
 743              		.loc 1 757 60 discriminator 1 view .LVU231
 744 00de 0028     		cmp	r0, #0
 745 00e0 A3D1     		bne	.L45
 758:usb_driver/Src/usb_core.c ****       {
 746              		.loc 1 758 11 view .LVU232
 747 00e2 002B     		cmp	r3, #0
 748 00e4 A1D0     		beq	.L45
 760:usb_driver/Src/usb_core.c ****       }
 749              		.loc 1 760 21 view .LVU233
 750 00e6 434B     		ldr	r3, .L80+16
 751              	.LVL67:
 760:usb_driver/Src/usb_core.c ****       }
 752              		.loc 1 760 21 view .LVU234
 753 00e8 1CE0     		b	.L47
 754              	.LVL68:
 755              	.L78:
 733:usb_driver/Src/usb_core.c ****           && (pInformation->Current_Configuration != 0))
ARM GAS  /tmp/ccIB1023.s 			page 31


 756              		.loc 1 733 7 is_stmt 1 view .LVU235
 733:usb_driver/Src/usb_core.c ****           && (pInformation->Current_Configuration != 0))
 757              		.loc 1 733 23 is_stmt 0 view .LVU236
 758 00ea 3F4B     		ldr	r3, .L80+4
 759 00ec 1B68     		ldr	r3, [r3]
 733:usb_driver/Src/usb_core.c ****           && (pInformation->Current_Configuration != 0))
 760              		.loc 1 733 13 view .LVU237
 761 00ee 9B69     		ldr	r3, [r3, #24]
 762 00f0 0021     		movs	r1, #0
 763 00f2 5079     		ldrb	r0, [r2, #5]	@ zero_extendqisi2
 764 00f4 9847     		blx	r3
 765              	.LVL69:
 733:usb_driver/Src/usb_core.c ****           && (pInformation->Current_Configuration != 0))
 766              		.loc 1 733 10 view .LVU238
 767 00f6 0028     		cmp	r0, #0
 768 00f8 97D1     		bne	.L45
 734:usb_driver/Src/usb_core.c ****       {
 769              		.loc 1 734 27 view .LVU239
 770 00fa 3A4B     		ldr	r3, .L80
 771 00fc 1B68     		ldr	r3, [r3]
 772 00fe 9B7A     		ldrb	r3, [r3, #10]	@ zero_extendqisi2
 734:usb_driver/Src/usb_core.c ****       {
 773              		.loc 1 734 11 view .LVU240
 774 0100 002B     		cmp	r3, #0
 775 0102 92D0     		beq	.L45
 736:usb_driver/Src/usb_core.c ****       }
 776              		.loc 1 736 21 view .LVU241
 777 0104 3B4B     		ldr	r3, .L80+16
 778 0106 0DE0     		b	.L47
 779              	.LVL70:
 780              	.L79:
 750:usb_driver/Src/usb_core.c ****       }
 781              		.loc 1 750 9 is_stmt 1 view .LVU242
 750:usb_driver/Src/usb_core.c ****       }
 782              		.loc 1 750 18 is_stmt 0 view .LVU243
 783 0108 9300     		lsls	r3, r2, #2
 784 010a 03F18043 		add	r3, r3, #1073741824
 785 010e 03F5B843 		add	r3, r3, #23552
 786 0112 1B68     		ldr	r3, [r3]
 750:usb_driver/Src/usb_core.c ****       }
 787              		.loc 1 750 16 view .LVU244
 788 0114 03F03003 		and	r3, r3, #48
 789              	.LVL71:
 750:usb_driver/Src/usb_core.c ****       }
 790              		.loc 1 750 16 view .LVU245
 791 0118 DDE7     		b	.L53
 792              	.LVL72:
 793              	.L71:
 769:usb_driver/Src/usb_core.c ****     {
 794              		.loc 1 769 5 is_stmt 1 view .LVU246
 769:usb_driver/Src/usb_core.c ****     {
 795              		.loc 1 769 9 is_stmt 0 view .LVU247
 796 011a 1378     		ldrb	r3, [r2]	@ zero_extendqisi2
 797              	.LVL73:
 769:usb_driver/Src/usb_core.c ****     {
 798              		.loc 1 769 8 view .LVU248
 799 011c 13F07F0F 		tst	r3, #127
ARM GAS  /tmp/ccIB1023.s 			page 32


 800 0120 83D1     		bne	.L45
 771:usb_driver/Src/usb_core.c ****     }
 801              		.loc 1 771 19 view .LVU249
 802 0122 354B     		ldr	r3, .L80+20
 803              	.LVL74:
 804              	.L47:
 787:usb_driver/Src/usb_core.c ****   {
 805              		.loc 1 787 3 is_stmt 1 view .LVU250
 787:usb_driver/Src/usb_core.c ****   {
 806              		.loc 1 787 6 is_stmt 0 view .LVU251
 807 0124 002B     		cmp	r3, #0
 808 0126 80D0     		beq	.L45
 789:usb_driver/Src/usb_core.c ****     pInformation->Ctrl_Info.CopyData = CopyRoutine;
 809              		.loc 1 789 5 is_stmt 1 view .LVU252
 789:usb_driver/Src/usb_core.c ****     pInformation->Ctrl_Info.CopyData = CopyRoutine;
 810              		.loc 1 789 17 is_stmt 0 view .LVU253
 811 0128 2E4A     		ldr	r2, .L80
 812 012a 1268     		ldr	r2, [r2]
 789:usb_driver/Src/usb_core.c ****     pInformation->Ctrl_Info.CopyData = CopyRoutine;
 813              		.loc 1 789 41 view .LVU254
 814 012c 0024     		movs	r4, #0
 815 012e 5482     		strh	r4, [r2, #18]	@ movhi
 790:usb_driver/Src/usb_core.c ****     /* sb in the original the cast to word was directly */
 816              		.loc 1 790 5 is_stmt 1 view .LVU255
 790:usb_driver/Src/usb_core.c ****     /* sb in the original the cast to word was directly */
 817              		.loc 1 790 38 is_stmt 0 view .LVU256
 818 0130 9361     		str	r3, [r2, #24]
 793:usb_driver/Src/usb_core.c ****     Result = USB_SUCCESS;
 819              		.loc 1 793 5 is_stmt 1 view .LVU257
 793:usb_driver/Src/usb_core.c ****     Result = USB_SUCCESS;
 820              		.loc 1 793 6 is_stmt 0 view .LVU258
 821 0132 2046     		mov	r0, r4
 822 0134 9847     		blx	r3
 823              	.LVL75:
 794:usb_driver/Src/usb_core.c ****   }
 824              		.loc 1 794 5 is_stmt 1 view .LVU259
 794:usb_driver/Src/usb_core.c ****   }
 825              		.loc 1 794 12 is_stmt 0 view .LVU260
 826 0136 2046     		mov	r0, r4
 827 0138 81E7     		b	.L55
 828              	.LVL76:
 829              	.L72:
 777:usb_driver/Src/usb_core.c ****         && (pInformation->Current_Configuration != 0) && (pInformation->USBwValue == 0)
 830              		.loc 1 777 5 is_stmt 1 view .LVU261
 777:usb_driver/Src/usb_core.c ****         && (pInformation->Current_Configuration != 0) && (pInformation->USBwValue == 0)
 831              		.loc 1 777 10 is_stmt 0 view .LVU262
 832 013a 1378     		ldrb	r3, [r2]	@ zero_extendqisi2
 833              	.LVL77:
 777:usb_driver/Src/usb_core.c ****         && (pInformation->Current_Configuration != 0) && (pInformation->USBwValue == 0)
 834              		.loc 1 777 8 view .LVU263
 835 013c 03F07F03 		and	r3, r3, #127
 836 0140 012B     		cmp	r3, #1
 837 0142 7FF472AF 		bne	.L45
 778:usb_driver/Src/usb_core.c ****         && (pInformation->USBwIndex1 == 0) && (pInformation->USBwLength == 0x0001)
 838              		.loc 1 778 25 view .LVU264
 839 0146 937A     		ldrb	r3, [r2, #10]	@ zero_extendqisi2
 778:usb_driver/Src/usb_core.c ****         && (pInformation->USBwIndex1 == 0) && (pInformation->USBwLength == 0x0001)
ARM GAS  /tmp/ccIB1023.s 			page 33


 840              		.loc 1 778 9 view .LVU265
 841 0148 002B     		cmp	r3, #0
 842 014a 3FF46EAF 		beq	.L45
 778:usb_driver/Src/usb_core.c ****         && (pInformation->USBwIndex1 == 0) && (pInformation->USBwLength == 0x0001)
 843              		.loc 1 778 73 discriminator 1 view .LVU266
 844 014e 5388     		ldrh	r3, [r2, #2]
 778:usb_driver/Src/usb_core.c ****         && (pInformation->USBwIndex1 == 0) && (pInformation->USBwLength == 0x0001)
 845              		.loc 1 778 55 discriminator 1 view .LVU267
 846 0150 002B     		cmp	r3, #0
 847 0152 7FF46AAF 		bne	.L45
 779:usb_driver/Src/usb_core.c ****         && ((*pProperty->Class_Get_Interface_Setting)(pInformation->USBwIndex0, 0) == USB_SUCCESS))
 848              		.loc 1 779 44 view .LVU268
 849 0156 5368     		ldr	r3, [r2, #4]
 850 0158 23F47F43 		bic	r3, r3, #65280
 851 015c B3F5803F 		cmp	r3, #65536
 852 0160 7FF463AF 		bne	.L45
 780:usb_driver/Src/usb_core.c ****     {
 853              		.loc 1 780 24 view .LVU269
 854 0164 204B     		ldr	r3, .L80+4
 855 0166 1B68     		ldr	r3, [r3]
 780:usb_driver/Src/usb_core.c ****     {
 856              		.loc 1 780 14 view .LVU270
 857 0168 9B69     		ldr	r3, [r3, #24]
 858 016a 0021     		movs	r1, #0
 859 016c 5079     		ldrb	r0, [r2, #5]	@ zero_extendqisi2
 860 016e 9847     		blx	r3
 861              	.LVL78:
 780:usb_driver/Src/usb_core.c ****     {
 862              		.loc 1 780 9 view .LVU271
 863 0170 0028     		cmp	r0, #0
 864 0172 7FF45AAF 		bne	.L45
 782:usb_driver/Src/usb_core.c ****     }
 865              		.loc 1 782 19 view .LVU272
 866 0176 214B     		ldr	r3, .L80+24
 867 0178 D4E7     		b	.L47
 868              	.LVL79:
 869              	.L64:
 727:usb_driver/Src/usb_core.c ****     }
 870              		.loc 1 727 19 view .LVU273
 871 017a 1E4B     		ldr	r3, .L80+16
 872 017c D2E7     		b	.L47
 873              	.LVL80:
 874              	.L73:
 801:usb_driver/Src/usb_core.c ****       return;
 875              		.loc 1 801 7 is_stmt 1 view .LVU274
 801:usb_driver/Src/usb_core.c ****       return;
 876              		.loc 1 801 19 is_stmt 0 view .LVU275
 877 017e 194B     		ldr	r3, .L80
 878 0180 1B68     		ldr	r3, [r3]
 801:usb_driver/Src/usb_core.c ****       return;
 879              		.loc 1 801 34 view .LVU276
 880 0182 0922     		movs	r2, #9
 881 0184 1A72     		strb	r2, [r3, #8]
 802:usb_driver/Src/usb_core.c ****     }
 882              		.loc 1 802 7 is_stmt 1 view .LVU277
 883 0186 04E0     		b	.L43
 884              	.L74:
ARM GAS  /tmp/ccIB1023.s 			page 34


 809:usb_driver/Src/usb_core.c ****     return;
 885              		.loc 1 809 5 view .LVU278
 809:usb_driver/Src/usb_core.c ****     return;
 886              		.loc 1 809 32 is_stmt 0 view .LVU279
 887 0188 0922     		movs	r2, #9
 888 018a 1A72     		strb	r2, [r3, #8]
 810:usb_driver/Src/usb_core.c ****   }
 889              		.loc 1 810 5 is_stmt 1 view .LVU280
 890 018c 01E0     		b	.L43
 891              	.L58:
 815:usb_driver/Src/usb_core.c ****     return;
 892              		.loc 1 815 5 view .LVU281
 815:usb_driver/Src/usb_core.c ****     return;
 893              		.loc 1 815 32 is_stmt 0 view .LVU282
 894 018e 0822     		movs	r2, #8
 895 0190 1A72     		strb	r2, [r3, #8]
 816:usb_driver/Src/usb_core.c ****   }
 896              		.loc 1 816 5 is_stmt 1 view .LVU283
 897              	.LVL81:
 898              	.L43:
 850:usb_driver/Src/usb_core.c ****   }
 851:usb_driver/Src/usb_core.c **** 
 852:usb_driver/Src/usb_core.c ****   return;
 853:usb_driver/Src/usb_core.c **** }
 899              		.loc 1 853 1 is_stmt 0 view .LVU284
 900 0192 02B0     		add	sp, sp, #8
 901              	.LCFI6:
 902              		.cfi_remember_state
 903              		.cfi_def_cfa_offset 8
 904              		@ sp needed
 905 0194 10BD     		pop	{r4, pc}
 906              	.LVL82:
 907              	.L75:
 908              	.LCFI7:
 909              		.cfi_restore_state
 910              	.LBB6:
 823:usb_driver/Src/usb_core.c ****      
 911              		.loc 1 823 5 is_stmt 1 view .LVU285
 823:usb_driver/Src/usb_core.c ****      
 912              		.loc 1 823 43 is_stmt 0 view .LVU286
 913 0196 D988     		ldrh	r1, [r3, #6]
 823:usb_driver/Src/usb_core.c ****      
 914              		.loc 1 823 19 view .LVU287
 915 0198 0191     		str	r1, [sp, #4]
 826:usb_driver/Src/usb_core.c ****     {
 916              		.loc 1 826 5 is_stmt 1 view .LVU288
 826:usb_driver/Src/usb_core.c ****     {
 917              		.loc 1 826 45 is_stmt 0 view .LVU289
 918 019a 0198     		ldr	r0, [sp, #4]
 919              	.LVL83:
 826:usb_driver/Src/usb_core.c ****     {
 920              		.loc 1 826 8 view .LVU290
 921 019c 8242     		cmp	r2, r0
 922 019e 09D9     		bls	.L61
 828:usb_driver/Src/usb_core.c ****     }
 923              		.loc 1 828 7 is_stmt 1 view .LVU291
 828:usb_driver/Src/usb_core.c ****     }
ARM GAS  /tmp/ccIB1023.s 			page 35


 924              		.loc 1 828 43 is_stmt 0 view .LVU292
 925 01a0 019A     		ldr	r2, [sp, #4]
 926 01a2 1A82     		strh	r2, [r3, #16]	@ movhi
 927              	.L62:
 843:usb_driver/Src/usb_core.c ****     DataStageIn();
 928              		.loc 1 843 5 is_stmt 1 view .LVU293
 843:usb_driver/Src/usb_core.c ****     DataStageIn();
 929              		.loc 1 843 51 is_stmt 0 view .LVU294
 930 01a4 104A     		ldr	r2, .L80+4
 931 01a6 1268     		ldr	r2, [r2]
 932 01a8 92F82C20 		ldrb	r2, [r2, #44]	@ zero_extendqisi2
 843:usb_driver/Src/usb_core.c ****     DataStageIn();
 933              		.loc 1 843 40 view .LVU295
 934 01ac 9A82     		strh	r2, [r3, #20]	@ movhi
 844:usb_driver/Src/usb_core.c ****   }
 935              		.loc 1 844 5 is_stmt 1 view .LVU296
 936 01ae FFF7FEFF 		bl	DataStageIn
 937              	.LVL84:
 938              	.LBE6:
 939 01b2 EEE7     		b	.L43
 940              	.L61:
 941              	.LBB7:
 831:usb_driver/Src/usb_core.c ****     {
 942              		.loc 1 831 10 view .LVU297
 831:usb_driver/Src/usb_core.c ****     {
 943              		.loc 1 831 13 is_stmt 0 view .LVU298
 944 01b4 8A42     		cmp	r2, r1
 945 01b6 F5D2     		bcs	.L62
 833:usb_driver/Src/usb_core.c ****       {
 946              		.loc 1 833 7 is_stmt 1 view .LVU299
 833:usb_driver/Src/usb_core.c ****       {
 947              		.loc 1 833 58 is_stmt 0 view .LVU300
 948 01b8 0B49     		ldr	r1, .L80+4
 949 01ba 0968     		ldr	r1, [r1]
 950 01bc 91F82C10 		ldrb	r1, [r1, #44]	@ zero_extendqisi2
 833:usb_driver/Src/usb_core.c ****       {
 951              		.loc 1 833 47 view .LVU301
 952 01c0 88B2     		uxth	r0, r1
 833:usb_driver/Src/usb_core.c ****       {
 953              		.loc 1 833 10 view .LVU302
 954 01c2 8242     		cmp	r2, r0
 955 01c4 03D2     		bcs	.L63
 835:usb_driver/Src/usb_core.c ****       }
 956              		.loc 1 835 9 is_stmt 1 view .LVU303
 835:usb_driver/Src/usb_core.c ****       }
 957              		.loc 1 835 32 is_stmt 0 view .LVU304
 958 01c6 0E4A     		ldr	r2, .L80+28
 959 01c8 0021     		movs	r1, #0
 960 01ca 1170     		strb	r1, [r2]
 961 01cc EAE7     		b	.L62
 962              	.L63:
 837:usb_driver/Src/usb_core.c ****       {
 963              		.loc 1 837 12 is_stmt 1 view .LVU305
 837:usb_driver/Src/usb_core.c ****       {
 964              		.loc 1 837 53 is_stmt 0 view .LVU306
 965 01ce 92FBF1F0 		sdiv	r0, r2, r1
 966 01d2 01FB1022 		mls	r2, r1, r0, r2
ARM GAS  /tmp/ccIB1023.s 			page 36


 837:usb_driver/Src/usb_core.c ****       {
 967              		.loc 1 837 15 view .LVU307
 968 01d6 002A     		cmp	r2, #0
 969 01d8 E4D1     		bne	.L62
 839:usb_driver/Src/usb_core.c ****       }
 970              		.loc 1 839 9 is_stmt 1 view .LVU308
 839:usb_driver/Src/usb_core.c ****       }
 971              		.loc 1 839 32 is_stmt 0 view .LVU309
 972 01da 094A     		ldr	r2, .L80+28
 973 01dc 0121     		movs	r1, #1
 974 01de 1170     		strb	r1, [r2]
 975 01e0 E0E7     		b	.L62
 976              	.L81:
 977 01e2 00BF     		.align	2
 978              	.L80:
 979 01e4 00000000 		.word	pInformation
 980 01e8 00000000 		.word	pProperty
 981 01ec 00000000 		.word	SaveRState
 982 01f0 00000000 		.word	Device_Table
 983 01f4 00000000 		.word	Standard_GetStatus
 984 01f8 00000000 		.word	Standard_GetConfiguration
 985 01fc 00000000 		.word	Standard_GetInterface
 986 0200 00000000 		.word	.LANCHOR1
 987              	.LBE7:
 988              		.cfi_endproc
 989              	.LFE68:
 991              		.section	.text.DataStageOut,"ax",%progbits
 992              		.align	1
 993              		.syntax unified
 994              		.thumb
 995              		.thumb_func
 996              		.fpu softvfp
 998              	DataStageOut:
 999              	.LFB65:
 444:usb_driver/Src/usb_core.c ****   ENDPOINT_INFO *pEPinfo = &pInformation->Ctrl_Info;
 1000              		.loc 1 444 1 is_stmt 1 view -0
 1001              		.cfi_startproc
 1002              		@ args = 0, pretend = 0, frame = 0
 1003              		@ frame_needed = 0, uses_anonymous_args = 0
 1004 0000 70B5     		push	{r4, r5, r6, lr}
 1005              	.LCFI8:
 1006              		.cfi_def_cfa_offset 16
 1007              		.cfi_offset 4, -16
 1008              		.cfi_offset 5, -12
 1009              		.cfi_offset 6, -8
 1010              		.cfi_offset 14, -4
 445:usb_driver/Src/usb_core.c ****   uint32_t save_rLength;
 1011              		.loc 1 445 3 view .LVU311
 445:usb_driver/Src/usb_core.c ****   uint32_t save_rLength;
 1012              		.loc 1 445 41 is_stmt 0 view .LVU312
 1013 0002 254B     		ldr	r3, .L91
 1014 0004 1C68     		ldr	r4, [r3]
 1015              	.LVL85:
 446:usb_driver/Src/usb_core.c **** 
 1016              		.loc 1 446 3 is_stmt 1 view .LVU313
 448:usb_driver/Src/usb_core.c **** 
 1017              		.loc 1 448 3 view .LVU314
ARM GAS  /tmp/ccIB1023.s 			page 37


 448:usb_driver/Src/usb_core.c **** 
 1018              		.loc 1 448 25 is_stmt 0 view .LVU315
 1019 0006 258A     		ldrh	r5, [r4, #16]
 1020              	.LVL86:
 450:usb_driver/Src/usb_core.c ****   {
 1021              		.loc 1 450 3 is_stmt 1 view .LVU316
 450:usb_driver/Src/usb_core.c ****   {
 1022              		.loc 1 450 14 is_stmt 0 view .LVU317
 1023 0008 A369     		ldr	r3, [r4, #24]
 450:usb_driver/Src/usb_core.c ****   {
 1024              		.loc 1 450 6 view .LVU318
 1025 000a B3B1     		cbz	r3, .L83
 450:usb_driver/Src/usb_core.c ****   {
 1026              		.loc 1 450 25 discriminator 1 view .LVU319
 1027 000c ADB1     		cbz	r5, .L83
 1028              	.LBB8:
 452:usb_driver/Src/usb_core.c ****     uint32_t Length;
 1029              		.loc 1 452 5 is_stmt 1 view .LVU320
 453:usb_driver/Src/usb_core.c **** 
 1030              		.loc 1 453 5 view .LVU321
 455:usb_driver/Src/usb_core.c ****     if (Length > save_rLength)
 1031              		.loc 1 455 5 view .LVU322
 455:usb_driver/Src/usb_core.c ****     if (Length > save_rLength)
 1032              		.loc 1 455 21 is_stmt 0 view .LVU323
 1033 000e A18A     		ldrh	r1, [r4, #20]
 1034              	.LVL87:
 456:usb_driver/Src/usb_core.c ****     {
 1035              		.loc 1 456 5 is_stmt 1 view .LVU324
 456:usb_driver/Src/usb_core.c ****     {
 1036              		.loc 1 456 8 is_stmt 0 view .LVU325
 1037 0010 8D42     		cmp	r5, r1
 1038 0012 00D3     		bcc	.L84
 455:usb_driver/Src/usb_core.c ****     if (Length > save_rLength)
 1039              		.loc 1 455 12 view .LVU326
 1040 0014 0D46     		mov	r5, r1
 1041              	.LVL88:
 1042              	.L84:
 461:usb_driver/Src/usb_core.c ****     pEPinfo->Usb_rLength -= Length;
 1043              		.loc 1 461 5 is_stmt 1 view .LVU327
 461:usb_driver/Src/usb_core.c ****     pEPinfo->Usb_rLength -= Length;
 1044              		.loc 1 461 15 is_stmt 0 view .LVU328
 1045 0016 ADB2     		uxth	r5, r5
 1046              	.LVL89:
 461:usb_driver/Src/usb_core.c ****     pEPinfo->Usb_rLength -= Length;
 1047              		.loc 1 461 15 view .LVU329
 1048 0018 2846     		mov	r0, r5
 1049 001a 9847     		blx	r3
 1050              	.LVL90:
 461:usb_driver/Src/usb_core.c ****     pEPinfo->Usb_rLength -= Length;
 1051              		.loc 1 461 15 view .LVU330
 1052 001c 0646     		mov	r6, r0
 1053              	.LVL91:
 462:usb_driver/Src/usb_core.c ****     pEPinfo->Usb_rOffset += Length;
 1054              		.loc 1 462 5 is_stmt 1 view .LVU331
 462:usb_driver/Src/usb_core.c ****     pEPinfo->Usb_rOffset += Length;
 1055              		.loc 1 462 26 is_stmt 0 view .LVU332
 1056 001e 238A     		ldrh	r3, [r4, #16]
ARM GAS  /tmp/ccIB1023.s 			page 38


 1057 0020 5B1B     		subs	r3, r3, r5
 1058 0022 2382     		strh	r3, [r4, #16]	@ movhi
 463:usb_driver/Src/usb_core.c ****     PMAToUserBufferCopy(Buffer, GetEPRxAddr(ENDP0), Length);
 1059              		.loc 1 463 5 is_stmt 1 view .LVU333
 463:usb_driver/Src/usb_core.c ****     PMAToUserBufferCopy(Buffer, GetEPRxAddr(ENDP0), Length);
 1060              		.loc 1 463 26 is_stmt 0 view .LVU334
 1061 0024 638A     		ldrh	r3, [r4, #18]
 1062 0026 2B44     		add	r3, r3, r5
 1063 0028 6382     		strh	r3, [r4, #18]	@ movhi
 464:usb_driver/Src/usb_core.c **** 
 1064              		.loc 1 464 5 is_stmt 1 view .LVU335
 1065 002a 0020     		movs	r0, #0
 1066              	.LVL92:
 464:usb_driver/Src/usb_core.c **** 
 1067              		.loc 1 464 5 is_stmt 0 view .LVU336
 1068 002c FFF7FEFF 		bl	GetEPRxAddr
 1069              	.LVL93:
 1070 0030 0146     		mov	r1, r0
 1071 0032 2A46     		mov	r2, r5
 1072 0034 3046     		mov	r0, r6
 1073 0036 FFF7FEFF 		bl	PMAToUserBufferCopy
 1074              	.LVL94:
 1075              	.L83:
 464:usb_driver/Src/usb_core.c **** 
 1076              		.loc 1 464 5 view .LVU337
 1077              	.LBE8:
 468:usb_driver/Src/usb_core.c ****   {
 1078              		.loc 1 468 3 is_stmt 1 view .LVU338
 468:usb_driver/Src/usb_core.c ****   {
 1079              		.loc 1 468 14 is_stmt 0 view .LVU339
 1080 003a 238A     		ldrh	r3, [r4, #16]
 468:usb_driver/Src/usb_core.c ****   {
 1081              		.loc 1 468 6 view .LVU340
 1082 003c 43B9     		cbnz	r3, .L90
 1083              	.L85:
 475:usb_driver/Src/usb_core.c ****   {
 1084              		.loc 1 475 3 is_stmt 1 view .LVU341
 475:usb_driver/Src/usb_core.c ****   {
 1085              		.loc 1 475 14 is_stmt 0 view .LVU342
 1086 003e 238A     		ldrh	r3, [r4, #16]
 475:usb_driver/Src/usb_core.c ****   {
 1087              		.loc 1 475 38 view .LVU343
 1088 0040 A28A     		ldrh	r2, [r4, #20]
 475:usb_driver/Src/usb_core.c ****   {
 1089              		.loc 1 475 6 view .LVU344
 1090 0042 9342     		cmp	r3, r2
 1091 0044 10D3     		bcc	.L86
 477:usb_driver/Src/usb_core.c ****   }
 1092              		.loc 1 477 5 is_stmt 1 view .LVU345
 477:usb_driver/Src/usb_core.c ****   }
 1093              		.loc 1 477 17 is_stmt 0 view .LVU346
 1094 0046 144B     		ldr	r3, .L91
 1095 0048 1B68     		ldr	r3, [r3]
 477:usb_driver/Src/usb_core.c ****   }
 1096              		.loc 1 477 32 view .LVU347
 1097 004a 0322     		movs	r2, #3
 1098 004c 1A72     		strb	r2, [r3, #8]
ARM GAS  /tmp/ccIB1023.s 			page 39


 1099              	.L82:
 491:usb_driver/Src/usb_core.c **** 
 1100              		.loc 1 491 1 view .LVU348
 1101 004e 70BD     		pop	{r4, r5, r6, pc}
 1102              	.LVL95:
 1103              	.L90:
 470:usb_driver/Src/usb_core.c ****     SetEPTxCount(ENDP0, 0);
 1104              		.loc 1 470 5 is_stmt 1 view .LVU349
 1105 0050 124B     		ldr	r3, .L91+4
 1106 0052 4FF44052 		mov	r2, #12288
 1107 0056 1A80     		strh	r2, [r3]	@ movhi
 471:usb_driver/Src/usb_core.c ****     vSetEPTxStatus(EP_TX_VALID);/* Expect the host to abort the data OUT stage */
 1108              		.loc 1 471 5 view .LVU350
 1109 0058 0021     		movs	r1, #0
 1110 005a 0846     		mov	r0, r1
 1111 005c FFF7FEFF 		bl	SetEPTxCount
 1112              	.LVL96:
 472:usb_driver/Src/usb_core.c ****   }
 1113              		.loc 1 472 5 view .LVU351
 1114 0060 0F4B     		ldr	r3, .L91+8
 1115 0062 3022     		movs	r2, #48
 1116 0064 1A80     		strh	r2, [r3]	@ movhi
 1117 0066 EAE7     		b	.L85
 1118              	.L86:
 481:usb_driver/Src/usb_core.c ****     {
 1119              		.loc 1 481 5 view .LVU352
 481:usb_driver/Src/usb_core.c ****     {
 1120              		.loc 1 481 8 is_stmt 0 view .LVU353
 1121 0068 23B1     		cbz	r3, .L88
 483:usb_driver/Src/usb_core.c ****     }
 1122              		.loc 1 483 7 is_stmt 1 view .LVU354
 483:usb_driver/Src/usb_core.c ****     }
 1123              		.loc 1 483 19 is_stmt 0 view .LVU355
 1124 006a 0B4B     		ldr	r3, .L91
 1125 006c 1B68     		ldr	r3, [r3]
 483:usb_driver/Src/usb_core.c ****     }
 1126              		.loc 1 483 34 view .LVU356
 1127 006e 0522     		movs	r2, #5
 1128 0070 1A72     		strb	r2, [r3, #8]
 1129 0072 ECE7     		b	.L82
 1130              	.L88:
 485:usb_driver/Src/usb_core.c ****     {
 1131              		.loc 1 485 10 is_stmt 1 view .LVU357
 487:usb_driver/Src/usb_core.c ****       USB_StatusIn();
 1132              		.loc 1 487 7 view .LVU358
 487:usb_driver/Src/usb_core.c ****       USB_StatusIn();
 1133              		.loc 1 487 19 is_stmt 0 view .LVU359
 1134 0074 084B     		ldr	r3, .L91
 1135 0076 1B68     		ldr	r3, [r3]
 487:usb_driver/Src/usb_core.c ****       USB_StatusIn();
 1136              		.loc 1 487 34 view .LVU360
 1137 0078 0622     		movs	r2, #6
 1138 007a 1A72     		strb	r2, [r3, #8]
 488:usb_driver/Src/usb_core.c ****     }
 1139              		.loc 1 488 7 is_stmt 1 view .LVU361
 1140 007c 094B     		ldr	r3, .L91+12
 1141 007e D3F8502C 		ldr	r2, [r3, #3152]
ARM GAS  /tmp/ccIB1023.s 			page 40


 1142 0082 92B2     		uxth	r2, r2
 1143 0084 084B     		ldr	r3, .L91+16
 1144 0086 1344     		add	r3, r3, r2
 1145 0088 5B00     		lsls	r3, r3, #1
 1146 008a 0022     		movs	r2, #0
 1147 008c 1A60     		str	r2, [r3]
 488:usb_driver/Src/usb_core.c ****     }
 1148              		.loc 1 488 7 view .LVU362
 1149 008e 044B     		ldr	r3, .L91+8
 1150 0090 3022     		movs	r2, #48
 1151 0092 1A80     		strh	r2, [r3]	@ movhi
 488:usb_driver/Src/usb_core.c ****     }
 1152              		.loc 1 488 21 view .LVU363
 491:usb_driver/Src/usb_core.c **** 
 1153              		.loc 1 491 1 is_stmt 0 view .LVU364
 1154 0094 DBE7     		b	.L82
 1155              	.L92:
 1156 0096 00BF     		.align	2
 1157              	.L91:
 1158 0098 00000000 		.word	pInformation
 1159 009c 00000000 		.word	SaveRState
 1160 00a0 00000000 		.word	SaveTState
 1161 00a4 00500040 		.word	1073762304
 1162 00a8 02300020 		.word	536883202
 1163              		.cfi_endproc
 1164              	.LFE65:
 1166              		.section	.text.Standard_SetConfiguration,"ax",%progbits
 1167              		.align	1
 1168              		.global	Standard_SetConfiguration
 1169              		.syntax unified
 1170              		.thumb
 1171              		.thumb_func
 1172              		.fpu softvfp
 1174              	Standard_SetConfiguration:
 1175              	.LFB57:
  91:usb_driver/Src/usb_core.c **** 
 1176              		.loc 1 91 1 is_stmt 1 view -0
 1177              		.cfi_startproc
 1178              		@ args = 0, pretend = 0, frame = 0
 1179              		@ frame_needed = 0, uses_anonymous_args = 0
 1180 0000 10B5     		push	{r4, lr}
 1181              	.LCFI9:
 1182              		.cfi_def_cfa_offset 8
 1183              		.cfi_offset 4, -8
 1184              		.cfi_offset 14, -4
  93:usb_driver/Src/usb_core.c ****       Device_Table.Total_Configuration) && (pInformation->USBwValue1 == 0)
 1185              		.loc 1 93 3 view .LVU366
  93:usb_driver/Src/usb_core.c ****       Device_Table.Total_Configuration) && (pInformation->USBwValue1 == 0)
 1186              		.loc 1 93 20 is_stmt 0 view .LVU367
 1187 0002 0C4B     		ldr	r3, .L99
 1188 0004 1B68     		ldr	r3, [r3]
  93:usb_driver/Src/usb_core.c ****       Device_Table.Total_Configuration) && (pInformation->USBwValue1 == 0)
 1189              		.loc 1 93 22 view .LVU368
 1190 0006 DA78     		ldrb	r2, [r3, #3]	@ zero_extendqisi2
  94:usb_driver/Src/usb_core.c ****       && (pInformation->USBwIndex == 0)) /*call Back usb spec 2.0*/
 1191              		.loc 1 94 19 view .LVU369
 1192 0008 0B49     		ldr	r1, .L99+4
ARM GAS  /tmp/ccIB1023.s 			page 41


 1193 000a 4978     		ldrb	r1, [r1, #1]	@ zero_extendqisi2
  93:usb_driver/Src/usb_core.c ****       Device_Table.Total_Configuration) && (pInformation->USBwValue1 == 0)
 1194              		.loc 1 93 6 view .LVU370
 1195 000c 8A42     		cmp	r2, r1
 1196 000e 0AD8     		bhi	.L95
  94:usb_driver/Src/usb_core.c ****       && (pInformation->USBwIndex == 0)) /*call Back usb spec 2.0*/
 1197              		.loc 1 94 59 view .LVU371
 1198 0010 9C78     		ldrb	r4, [r3, #2]	@ zero_extendqisi2
  94:usb_driver/Src/usb_core.c ****       && (pInformation->USBwIndex == 0)) /*call Back usb spec 2.0*/
 1199              		.loc 1 94 41 view .LVU372
 1200 0012 54B9     		cbnz	r4, .L96
  95:usb_driver/Src/usb_core.c ****   {
 1201              		.loc 1 95 25 view .LVU373
 1202 0014 9988     		ldrh	r1, [r3, #4]
  95:usb_driver/Src/usb_core.c ****   {
 1203              		.loc 1 95 7 view .LVU374
 1204 0016 51B9     		cbnz	r1, .L97
  97:usb_driver/Src/usb_core.c ****     pUser_Standard_Requests->User_SetConfiguration();
 1205              		.loc 1 97 5 is_stmt 1 view .LVU375
  97:usb_driver/Src/usb_core.c ****     pUser_Standard_Requests->User_SetConfiguration();
 1206              		.loc 1 97 41 is_stmt 0 view .LVU376
 1207 0018 9A72     		strb	r2, [r3, #10]
  98:usb_driver/Src/usb_core.c ****     return USB_SUCCESS;
 1208              		.loc 1 98 5 is_stmt 1 view .LVU377
  98:usb_driver/Src/usb_core.c ****     return USB_SUCCESS;
 1209              		.loc 1 98 28 is_stmt 0 view .LVU378
 1210 001a 084B     		ldr	r3, .L99+8
 1211 001c 1B68     		ldr	r3, [r3]
 1212 001e 5B68     		ldr	r3, [r3, #4]
  98:usb_driver/Src/usb_core.c ****     return USB_SUCCESS;
 1213              		.loc 1 98 5 view .LVU379
 1214 0020 9847     		blx	r3
 1215              	.LVL97:
  99:usb_driver/Src/usb_core.c ****   }
 1216              		.loc 1 99 5 is_stmt 1 view .LVU380
 1217              	.L94:
 105:usb_driver/Src/usb_core.c **** 
 1218              		.loc 1 105 1 is_stmt 0 view .LVU381
 1219 0022 2046     		mov	r0, r4
 1220 0024 10BD     		pop	{r4, pc}
 1221              	.L95:
 103:usb_driver/Src/usb_core.c ****   }
 1222              		.loc 1 103 12 view .LVU382
 1223 0026 0224     		movs	r4, #2
 1224 0028 FBE7     		b	.L94
 1225              	.L96:
 1226 002a 0224     		movs	r4, #2
 1227 002c F9E7     		b	.L94
 1228              	.L97:
 1229 002e 0224     		movs	r4, #2
 1230 0030 F7E7     		b	.L94
 1231              	.L100:
 1232 0032 00BF     		.align	2
 1233              	.L99:
 1234 0034 00000000 		.word	pInformation
 1235 0038 00000000 		.word	Device_Table
 1236 003c 00000000 		.word	pUser_Standard_Requests
ARM GAS  /tmp/ccIB1023.s 			page 42


 1237              		.cfi_endproc
 1238              	.LFE57:
 1240              		.section	.text.Standard_SetInterface,"ax",%progbits
 1241              		.align	1
 1242              		.global	Standard_SetInterface
 1243              		.syntax unified
 1244              		.thumb
 1245              		.thumb_func
 1246              		.fpu softvfp
 1248              	Standard_SetInterface:
 1249              	.LFB59:
 137:usb_driver/Src/usb_core.c ****   RESULT Re;
 1250              		.loc 1 137 1 is_stmt 1 view -0
 1251              		.cfi_startproc
 1252              		@ args = 0, pretend = 0, frame = 0
 1253              		@ frame_needed = 0, uses_anonymous_args = 0
 1254 0000 10B5     		push	{r4, lr}
 1255              	.LCFI10:
 1256              		.cfi_def_cfa_offset 8
 1257              		.cfi_offset 4, -8
 1258              		.cfi_offset 14, -4
 138:usb_driver/Src/usb_core.c ****   /*Test if the specified Interface and Alternate Setting are supported by
 1259              		.loc 1 138 3 view .LVU384
 141:usb_driver/Src/usb_core.c **** 
 1260              		.loc 1 141 3 view .LVU385
 141:usb_driver/Src/usb_core.c **** 
 1261              		.loc 1 141 19 is_stmt 0 view .LVU386
 1262 0002 124B     		ldr	r3, .L108
 1263 0004 1A68     		ldr	r2, [r3]
 141:usb_driver/Src/usb_core.c **** 
 1264              		.loc 1 141 62 view .LVU387
 1265 0006 124C     		ldr	r4, .L108+4
 1266 0008 2368     		ldr	r3, [r4]
 141:usb_driver/Src/usb_core.c **** 
 1267              		.loc 1 141 9 view .LVU388
 1268 000a 9269     		ldr	r2, [r2, #24]
 1269 000c D978     		ldrb	r1, [r3, #3]	@ zero_extendqisi2
 1270 000e 5879     		ldrb	r0, [r3, #5]	@ zero_extendqisi2
 1271 0010 9047     		blx	r2
 1272              	.LVL98:
 143:usb_driver/Src/usb_core.c ****   {
 1273              		.loc 1 143 3 is_stmt 1 view .LVU389
 143:usb_driver/Src/usb_core.c ****   {
 1274              		.loc 1 143 19 is_stmt 0 view .LVU390
 1275 0012 2368     		ldr	r3, [r4]
 1276 0014 9A7A     		ldrb	r2, [r3, #10]	@ zero_extendqisi2
 143:usb_driver/Src/usb_core.c ****   {
 1277              		.loc 1 143 6 view .LVU391
 1278 0016 7AB1     		cbz	r2, .L103
 145:usb_driver/Src/usb_core.c ****         || (pInformation->USBwValue1 != 0))
 1279              		.loc 1 145 5 is_stmt 1 view .LVU392
 145:usb_driver/Src/usb_core.c ****         || (pInformation->USBwValue1 != 0))
 1280              		.loc 1 145 8 is_stmt 0 view .LVU393
 1281 0018 88B9     		cbnz	r0, .L104
 145:usb_driver/Src/usb_core.c ****         || (pInformation->USBwValue1 != 0))
 1282              		.loc 1 145 47 discriminator 1 view .LVU394
 1283 001a 1A79     		ldrb	r2, [r3, #4]	@ zero_extendqisi2
ARM GAS  /tmp/ccIB1023.s 			page 43


 145:usb_driver/Src/usb_core.c ****         || (pInformation->USBwValue1 != 0))
 1284              		.loc 1 145 29 discriminator 1 view .LVU395
 1285 001c 8AB9     		cbnz	r2, .L105
 146:usb_driver/Src/usb_core.c ****     {
 1286              		.loc 1 146 27 view .LVU396
 1287 001e 9C78     		ldrb	r4, [r3, #2]	@ zero_extendqisi2
 146:usb_driver/Src/usb_core.c ****     {
 1288              		.loc 1 146 9 view .LVU397
 1289 0020 8CB9     		cbnz	r4, .L106
 150:usb_driver/Src/usb_core.c ****     {
 1290              		.loc 1 150 10 is_stmt 1 view .LVU398
 152:usb_driver/Src/usb_core.c ****       pInformation->Current_Interface = pInformation->USBwIndex0;
 1291              		.loc 1 152 7 view .LVU399
 152:usb_driver/Src/usb_core.c ****       pInformation->Current_Interface = pInformation->USBwIndex0;
 1292              		.loc 1 152 30 is_stmt 0 view .LVU400
 1293 0022 0C4B     		ldr	r3, .L108+8
 1294 0024 1B68     		ldr	r3, [r3]
 1295 0026 DB68     		ldr	r3, [r3, #12]
 152:usb_driver/Src/usb_core.c ****       pInformation->Current_Interface = pInformation->USBwIndex0;
 1296              		.loc 1 152 7 view .LVU401
 1297 0028 9847     		blx	r3
 1298              	.LVL99:
 153:usb_driver/Src/usb_core.c ****       pInformation->Current_AlternateSetting = pInformation->USBwValue0;
 1299              		.loc 1 153 7 is_stmt 1 view .LVU402
 153:usb_driver/Src/usb_core.c ****       pInformation->Current_AlternateSetting = pInformation->USBwValue0;
 1300              		.loc 1 153 53 is_stmt 0 view .LVU403
 1301 002a 094B     		ldr	r3, .L108+4
 1302 002c 1B68     		ldr	r3, [r3]
 153:usb_driver/Src/usb_core.c ****       pInformation->Current_AlternateSetting = pInformation->USBwValue0;
 1303              		.loc 1 153 55 view .LVU404
 1304 002e 5A79     		ldrb	r2, [r3, #5]	@ zero_extendqisi2
 153:usb_driver/Src/usb_core.c ****       pInformation->Current_AlternateSetting = pInformation->USBwValue0;
 1305              		.loc 1 153 39 view .LVU405
 1306 0030 DA72     		strb	r2, [r3, #11]
 154:usb_driver/Src/usb_core.c ****       return USB_SUCCESS;
 1307              		.loc 1 154 7 is_stmt 1 view .LVU406
 154:usb_driver/Src/usb_core.c ****       return USB_SUCCESS;
 1308              		.loc 1 154 62 is_stmt 0 view .LVU407
 1309 0032 DA78     		ldrb	r2, [r3, #3]	@ zero_extendqisi2
 154:usb_driver/Src/usb_core.c ****       return USB_SUCCESS;
 1310              		.loc 1 154 46 view .LVU408
 1311 0034 1A73     		strb	r2, [r3, #12]
 155:usb_driver/Src/usb_core.c ****     }
 1312              		.loc 1 155 7 is_stmt 1 view .LVU409
 155:usb_driver/Src/usb_core.c ****     }
 1313              		.loc 1 155 14 is_stmt 0 view .LVU410
 1314 0036 00E0     		b	.L102
 1315              	.LVL100:
 1316              	.L103:
 160:usb_driver/Src/usb_core.c **** }
 1317              		.loc 1 160 10 view .LVU411
 1318 0038 0224     		movs	r4, #2
 1319              	.LVL101:
 1320              	.L102:
 161:usb_driver/Src/usb_core.c **** 
 1321              		.loc 1 161 1 view .LVU412
 1322 003a 2046     		mov	r0, r4
ARM GAS  /tmp/ccIB1023.s 			page 44


 1323 003c 10BD     		pop	{r4, pc}
 1324              	.LVL102:
 1325              	.L104:
 148:usb_driver/Src/usb_core.c ****     }
 1326              		.loc 1 148 15 view .LVU413
 1327 003e 0224     		movs	r4, #2
 1328 0040 FBE7     		b	.L102
 1329              	.L105:
 1330 0042 0224     		movs	r4, #2
 1331 0044 F9E7     		b	.L102
 1332              	.L106:
 1333 0046 0224     		movs	r4, #2
 1334 0048 F7E7     		b	.L102
 1335              	.L109:
 1336 004a 00BF     		.align	2
 1337              	.L108:
 1338 004c 00000000 		.word	pProperty
 1339 0050 00000000 		.word	pInformation
 1340 0054 00000000 		.word	pUser_Standard_Requests
 1341              		.cfi_endproc
 1342              	.LFE59:
 1344              		.section	.text.Standard_ClearFeature,"ax",%progbits
 1345              		.align	1
 1346              		.global	Standard_ClearFeature
 1347              		.syntax unified
 1348              		.thumb
 1349              		.thumb_func
 1350              		.fpu softvfp
 1352              	Standard_ClearFeature:
 1353              	.LFB61:
 254:usb_driver/Src/usb_core.c ****   uint32_t     Type_Rec = Type_Recipient;
 1354              		.loc 1 254 1 is_stmt 1 view -0
 1355              		.cfi_startproc
 1356              		@ args = 0, pretend = 0, frame = 0
 1357              		@ frame_needed = 0, uses_anonymous_args = 0
 1358 0000 38B5     		push	{r3, r4, r5, lr}
 1359              	.LCFI11:
 1360              		.cfi_def_cfa_offset 16
 1361              		.cfi_offset 3, -16
 1362              		.cfi_offset 4, -12
 1363              		.cfi_offset 5, -8
 1364              		.cfi_offset 14, -4
 255:usb_driver/Src/usb_core.c ****   uint32_t     Status;
 1365              		.loc 1 255 3 view .LVU415
 255:usb_driver/Src/usb_core.c ****   uint32_t     Status;
 1366              		.loc 1 255 27 is_stmt 0 view .LVU416
 1367 0002 454B     		ldr	r3, .L130
 1368 0004 1A68     		ldr	r2, [r3]
 1369 0006 1378     		ldrb	r3, [r2]	@ zero_extendqisi2
 1370              	.LVL103:
 256:usb_driver/Src/usb_core.c **** 
 1371              		.loc 1 256 3 is_stmt 1 view .LVU417
 259:usb_driver/Src/usb_core.c ****   {/*Device Clear Feature*/
 1372              		.loc 1 259 3 view .LVU418
 259:usb_driver/Src/usb_core.c ****   {/*Device Clear Feature*/
 1373              		.loc 1 259 6 is_stmt 0 view .LVU419
 1374 0008 13F07F03 		ands	r3, r3, #127
ARM GAS  /tmp/ccIB1023.s 			page 45


 1375              	.LVL104:
 259:usb_driver/Src/usb_core.c ****   {/*Device Clear Feature*/
 1376              		.loc 1 259 6 view .LVU420
 1377 000c 03D0     		beq	.L125
 264:usb_driver/Src/usb_core.c ****   {/*EndPoint Clear Feature*/
 1378              		.loc 1 264 8 is_stmt 1 view .LVU421
 264:usb_driver/Src/usb_core.c ****   {/*EndPoint Clear Feature*/
 1379              		.loc 1 264 11 is_stmt 0 view .LVU422
 1380 000e 022B     		cmp	r3, #2
 1381 0010 08D0     		beq	.L126
 331:usb_driver/Src/usb_core.c **** }
 1382              		.loc 1 331 10 view .LVU423
 1383 0012 0224     		movs	r4, #2
 1384 0014 04E0     		b	.L112
 1385              	.L125:
 261:usb_driver/Src/usb_core.c ****     return USB_SUCCESS;
 1386              		.loc 1 261 5 is_stmt 1 view .LVU424
 1387 0016 537A     		ldrb	r3, [r2, #9]	@ zero_extendqisi2
 1388              	.LVL105:
 261:usb_driver/Src/usb_core.c ****     return USB_SUCCESS;
 1389              		.loc 1 261 5 is_stmt 0 view .LVU425
 1390 0018 23F02003 		bic	r3, r3, #32
 1391 001c 5372     		strb	r3, [r2, #9]
 262:usb_driver/Src/usb_core.c ****   }
 1392              		.loc 1 262 5 is_stmt 1 view .LVU426
 262:usb_driver/Src/usb_core.c ****   }
 1393              		.loc 1 262 12 is_stmt 0 view .LVU427
 1394 001e 0024     		movs	r4, #0
 1395              	.LVL106:
 1396              	.L112:
 332:usb_driver/Src/usb_core.c **** 
 1397              		.loc 1 332 1 view .LVU428
 1398 0020 2046     		mov	r0, r4
 1399 0022 38BD     		pop	{r3, r4, r5, pc}
 1400              	.LVL107:
 1401              	.L126:
 1402              	.LBB9:
 266:usb_driver/Src/usb_core.c ****     uint32_t Related_Endpoint;
 1403              		.loc 1 266 5 is_stmt 1 view .LVU429
 267:usb_driver/Src/usb_core.c ****     uint32_t wIndex0;
 1404              		.loc 1 267 5 view .LVU430
 268:usb_driver/Src/usb_core.c ****     uint32_t rEP;
 1405              		.loc 1 268 5 view .LVU431
 269:usb_driver/Src/usb_core.c **** 
 1406              		.loc 1 269 5 view .LVU432
 271:usb_driver/Src/usb_core.c ****         || (pInformation->USBwIndex1 != 0))
 1407              		.loc 1 271 5 view .LVU433
 271:usb_driver/Src/usb_core.c ****         || (pInformation->USBwIndex1 != 0))
 1408              		.loc 1 271 24 is_stmt 0 view .LVU434
 1409 0024 5388     		ldrh	r3, [r2, #2]
 1410              	.LVL108:
 271:usb_driver/Src/usb_core.c ****         || (pInformation->USBwIndex1 != 0))
 1411              		.loc 1 271 8 view .LVU435
 1412 0026 002B     		cmp	r3, #0
 1413 0028 6CD1     		bne	.L119
 272:usb_driver/Src/usb_core.c ****     {
 1414              		.loc 1 272 27 view .LVU436
ARM GAS  /tmp/ccIB1023.s 			page 46


 1415 002a 1479     		ldrb	r4, [r2, #4]	@ zero_extendqisi2
 272:usb_driver/Src/usb_core.c ****     {
 1416              		.loc 1 272 9 view .LVU437
 1417 002c 002C     		cmp	r4, #0
 1418 002e 6BD1     		bne	.L120
 277:usb_driver/Src/usb_core.c ****     wIndex0 = pInformation->USBwIndex0;
 1419              		.loc 1 277 5 is_stmt 1 view .LVU438
 1420              	.LVL109:
 278:usb_driver/Src/usb_core.c ****     rEP = wIndex0 & ~0x80;
 1421              		.loc 1 278 5 view .LVU439
 278:usb_driver/Src/usb_core.c ****     rEP = wIndex0 & ~0x80;
 1422              		.loc 1 278 29 is_stmt 0 view .LVU440
 1423 0030 5379     		ldrb	r3, [r2, #5]	@ zero_extendqisi2
 1424              	.LVL110:
 279:usb_driver/Src/usb_core.c ****     Related_Endpoint = ENDP0 + rEP;
 1425              		.loc 1 279 5 is_stmt 1 view .LVU441
 279:usb_driver/Src/usb_core.c ****     Related_Endpoint = ENDP0 + rEP;
 1426              		.loc 1 279 9 is_stmt 0 view .LVU442
 1427 0032 23F08000 		bic	r0, r3, #128
 1428              	.LVL111:
 280:usb_driver/Src/usb_core.c **** 
 1429              		.loc 1 280 5 is_stmt 1 view .LVU443
 282:usb_driver/Src/usb_core.c ****     {
 1430              		.loc 1 282 5 view .LVU444
 282:usb_driver/Src/usb_core.c ****     {
 1431              		.loc 1 282 9 is_stmt 0 view .LVU445
 1432 0036 5BB2     		sxtb	r3, r3
 1433              	.LVL112:
 282:usb_driver/Src/usb_core.c ****     {
 1434              		.loc 1 282 8 view .LVU446
 1435 0038 002B     		cmp	r3, #0
 1436 003a 23DB     		blt	.L127
 290:usb_driver/Src/usb_core.c ****     }
 1437              		.loc 1 290 7 is_stmt 1 view .LVU447
 290:usb_driver/Src/usb_core.c ****     }
 1438              		.loc 1 290 16 is_stmt 0 view .LVU448
 1439 003c 8100     		lsls	r1, r0, #2
 1440 003e 01F18041 		add	r1, r1, #1073741824
 1441 0042 01F5B841 		add	r1, r1, #23552
 1442 0046 0968     		ldr	r1, [r1]
 290:usb_driver/Src/usb_core.c ****     }
 1443              		.loc 1 290 14 view .LVU449
 1444 0048 01F44051 		and	r1, r1, #12288
 1445              	.LVL113:
 1446              	.L114:
 293:usb_driver/Src/usb_core.c ****         || (pInformation->Current_Configuration == 0))
 1447              		.loc 1 293 5 is_stmt 1 view .LVU450
 293:usb_driver/Src/usb_core.c ****         || (pInformation->Current_Configuration == 0))
 1448              		.loc 1 293 21 is_stmt 0 view .LVU451
 1449 004c 334D     		ldr	r5, .L130+4
 1450 004e 95F800C0 		ldrb	ip, [r5]	@ zero_extendqisi2
 293:usb_driver/Src/usb_core.c ****         || (pInformation->Current_Configuration == 0))
 1451              		.loc 1 293 8 view .LVU452
 1452 0052 8445     		cmp	ip, r0
 1453 0054 5AD9     		bls	.L121
 293:usb_driver/Src/usb_core.c ****         || (pInformation->Current_Configuration == 0))
 1454              		.loc 1 293 39 discriminator 1 view .LVU453
ARM GAS  /tmp/ccIB1023.s 			page 47


 1455 0056 0029     		cmp	r1, #0
 1456 0058 5AD0     		beq	.L122
 294:usb_driver/Src/usb_core.c ****     {
 1457              		.loc 1 294 25 view .LVU454
 1458 005a 927A     		ldrb	r2, [r2, #10]	@ zero_extendqisi2
 1459              	.LVL114:
 294:usb_driver/Src/usb_core.c ****     {
 1460              		.loc 1 294 9 view .LVU455
 1461 005c 002A     		cmp	r2, #0
 1462 005e 59D0     		beq	.L123
 300:usb_driver/Src/usb_core.c ****     {
 1463              		.loc 1 300 5 is_stmt 1 view .LVU456
 300:usb_driver/Src/usb_core.c ****     {
 1464              		.loc 1 300 8 is_stmt 0 view .LVU457
 1465 0060 002B     		cmp	r3, #0
 1466 0062 18DB     		blt	.L128
 312:usb_driver/Src/usb_core.c ****       {
 1467              		.loc 1 312 7 is_stmt 1 view .LVU458
 312:usb_driver/Src/usb_core.c ****       {
 1468              		.loc 1 312 11 is_stmt 0 view .LVU459
 1469 0064 8500     		lsls	r5, r0, #2
 1470 0066 05F18045 		add	r5, r5, #1073741824
 1471 006a 05F5B845 		add	r5, r5, #23552
 1472 006e 2B68     		ldr	r3, [r5]
 1473 0070 03F44053 		and	r3, r3, #12288
 312:usb_driver/Src/usb_core.c ****       {
 1474              		.loc 1 312 10 view .LVU460
 1475 0074 B3F5805F 		cmp	r3, #4096
 1476 0078 20D0     		beq	.L129
 1477              	.LVL115:
 1478              	.L116:
 323:usb_driver/Src/usb_core.c ****         }
 1479              		.loc 1 323 56 is_stmt 1 discriminator 7 view .LVU461
 327:usb_driver/Src/usb_core.c ****     return USB_SUCCESS;
 1480              		.loc 1 327 5 discriminator 7 view .LVU462
 327:usb_driver/Src/usb_core.c ****     return USB_SUCCESS;
 1481              		.loc 1 327 28 is_stmt 0 discriminator 7 view .LVU463
 1482 007a 294B     		ldr	r3, .L130+8
 1483 007c 1B68     		ldr	r3, [r3]
 1484 007e 5B69     		ldr	r3, [r3, #20]
 327:usb_driver/Src/usb_core.c ****     return USB_SUCCESS;
 1485              		.loc 1 327 5 discriminator 7 view .LVU464
 1486 0080 9847     		blx	r3
 1487              	.LVL116:
 328:usb_driver/Src/usb_core.c ****   }
 1488              		.loc 1 328 5 is_stmt 1 discriminator 7 view .LVU465
 328:usb_driver/Src/usb_core.c ****   }
 1489              		.loc 1 328 12 is_stmt 0 discriminator 7 view .LVU466
 1490 0082 CDE7     		b	.L112
 1491              	.LVL117:
 1492              	.L127:
 286:usb_driver/Src/usb_core.c ****     }
 1493              		.loc 1 286 7 is_stmt 1 view .LVU467
 286:usb_driver/Src/usb_core.c ****     }
 1494              		.loc 1 286 16 is_stmt 0 view .LVU468
 1495 0084 8100     		lsls	r1, r0, #2
 1496 0086 01F18041 		add	r1, r1, #1073741824
ARM GAS  /tmp/ccIB1023.s 			page 48


 1497 008a 01F5B841 		add	r1, r1, #23552
 1498 008e 0968     		ldr	r1, [r1]
 286:usb_driver/Src/usb_core.c ****     }
 1499              		.loc 1 286 14 view .LVU469
 1500 0090 01F03001 		and	r1, r1, #48
 1501              	.LVL118:
 286:usb_driver/Src/usb_core.c ****     }
 1502              		.loc 1 286 14 view .LVU470
 1503 0094 DAE7     		b	.L114
 1504              	.LVL119:
 1505              	.L128:
 303:usb_driver/Src/usb_core.c ****       {
 1506              		.loc 1 303 7 is_stmt 1 view .LVU471
 303:usb_driver/Src/usb_core.c ****       {
 1507              		.loc 1 303 11 is_stmt 0 view .LVU472
 1508 0096 8300     		lsls	r3, r0, #2
 1509 0098 03F18043 		add	r3, r3, #1073741824
 1510 009c 03F5B843 		add	r3, r3, #23552
 1511 00a0 1B68     		ldr	r3, [r3]
 1512 00a2 03F03003 		and	r3, r3, #48
 303:usb_driver/Src/usb_core.c ****       {
 1513              		.loc 1 303 10 view .LVU473
 1514 00a6 102B     		cmp	r3, #16
 1515 00a8 E7D1     		bne	.L116
 305:usb_driver/Src/usb_core.c ****         SetEPTxStatus(Related_Endpoint, EP_TX_VALID);
 1516              		.loc 1 305 9 is_stmt 1 view .LVU474
 1517 00aa C5B2     		uxtb	r5, r0
 1518 00ac 2846     		mov	r0, r5
 1519              	.LVL120:
 305:usb_driver/Src/usb_core.c ****         SetEPTxStatus(Related_Endpoint, EP_TX_VALID);
 1520              		.loc 1 305 9 is_stmt 0 view .LVU475
 1521 00ae FFF7FEFF 		bl	ClearDTOG_TX
 1522              	.LVL121:
 306:usb_driver/Src/usb_core.c ****       }
 1523              		.loc 1 306 9 is_stmt 1 view .LVU476
 1524 00b2 3021     		movs	r1, #48
 1525 00b4 2846     		mov	r0, r5
 1526 00b6 FFF7FEFF 		bl	SetEPTxStatus
 1527              	.LVL122:
 1528 00ba DEE7     		b	.L116
 1529              	.LVL123:
 1530              	.L129:
 314:usb_driver/Src/usb_core.c ****         {
 1531              		.loc 1 314 9 view .LVU477
 314:usb_driver/Src/usb_core.c ****         {
 1532              		.loc 1 314 12 is_stmt 0 view .LVU478
 1533 00bc 90B9     		cbnz	r0, .L117
 317:usb_driver/Src/usb_core.c ****           _SetEPRxStatus(Related_Endpoint, EP_RX_VALID);
 1534              		.loc 1 317 11 is_stmt 1 view .LVU479
 1535 00be 194B     		ldr	r3, .L130+12
 1536 00c0 93F82C10 		ldrb	r1, [r3, #44]	@ zero_extendqisi2
 1537              	.LVL124:
 317:usb_driver/Src/usb_core.c ****           _SetEPRxStatus(Related_Endpoint, EP_RX_VALID);
 1538              		.loc 1 317 11 is_stmt 0 view .LVU480
 1539 00c4 FFF7FEFF 		bl	SetEPRxCount
 1540              	.LVL125:
 1541              	.LBB10:
ARM GAS  /tmp/ccIB1023.s 			page 49


 318:usb_driver/Src/usb_core.c ****         }
 1542              		.loc 1 318 11 is_stmt 1 view .LVU481
 318:usb_driver/Src/usb_core.c ****         }
 1543              		.loc 1 318 11 view .LVU482
 1544 00c8 2B68     		ldr	r3, [r5]
 1545 00ca 9BB2     		uxth	r3, r3
 1546 00cc 23F48043 		bic	r3, r3, #16384
 1547 00d0 23F07003 		bic	r3, r3, #112
 1548              	.LVL126:
 318:usb_driver/Src/usb_core.c ****         }
 1549              		.loc 1 318 11 view .LVU483
 318:usb_driver/Src/usb_core.c ****         }
 1550              		.loc 1 318 11 view .LVU484
 318:usb_driver/Src/usb_core.c ****         }
 1551              		.loc 1 318 11 view .LVU485
 318:usb_driver/Src/usb_core.c ****         }
 1552              		.loc 1 318 11 view .LVU486
 1553 00d4 83F44053 		eor	r3, r3, #12288
 1554              	.LVL127:
 318:usb_driver/Src/usb_core.c ****         }
 1555              		.loc 1 318 11 view .LVU487
 1556 00d8 43F40043 		orr	r3, r3, #32768
 1557              	.LVL128:
 318:usb_driver/Src/usb_core.c ****         }
 1558              		.loc 1 318 11 is_stmt 0 view .LVU488
 1559 00dc 43F08003 		orr	r3, r3, #128
 1560 00e0 2B60     		str	r3, [r5]
 1561              	.LBE10:
 318:usb_driver/Src/usb_core.c ****         }
 1562              		.loc 1 318 56 is_stmt 1 view .LVU489
 1563 00e2 CAE7     		b	.L116
 1564              	.LVL129:
 1565              	.L117:
 322:usb_driver/Src/usb_core.c ****           _SetEPRxStatus(Related_Endpoint, EP_RX_VALID);
 1566              		.loc 1 322 11 view .LVU490
 1567 00e4 FFF7FEFF 		bl	ClearDTOG_RX
 1568              	.LVL130:
 1569              	.LBB11:
 323:usb_driver/Src/usb_core.c ****         }
 1570              		.loc 1 323 11 view .LVU491
 323:usb_driver/Src/usb_core.c ****         }
 1571              		.loc 1 323 11 view .LVU492
 1572 00e8 2B68     		ldr	r3, [r5]
 1573 00ea 9BB2     		uxth	r3, r3
 1574 00ec 23F48043 		bic	r3, r3, #16384
 1575 00f0 23F07003 		bic	r3, r3, #112
 1576              	.LVL131:
 323:usb_driver/Src/usb_core.c ****         }
 1577              		.loc 1 323 11 view .LVU493
 323:usb_driver/Src/usb_core.c ****         }
 1578              		.loc 1 323 11 view .LVU494
 323:usb_driver/Src/usb_core.c ****         }
 1579              		.loc 1 323 11 view .LVU495
 323:usb_driver/Src/usb_core.c ****         }
 1580              		.loc 1 323 11 view .LVU496
 1581 00f4 83F44053 		eor	r3, r3, #12288
 1582              	.LVL132:
ARM GAS  /tmp/ccIB1023.s 			page 50


 323:usb_driver/Src/usb_core.c ****         }
 1583              		.loc 1 323 11 view .LVU497
 1584 00f8 43F40043 		orr	r3, r3, #32768
 1585              	.LVL133:
 323:usb_driver/Src/usb_core.c ****         }
 1586              		.loc 1 323 11 is_stmt 0 view .LVU498
 1587 00fc 43F08003 		orr	r3, r3, #128
 1588 0100 2B60     		str	r3, [r5]
 1589 0102 BAE7     		b	.L116
 1590              	.LVL134:
 1591              	.L119:
 323:usb_driver/Src/usb_core.c ****         }
 1592              		.loc 1 323 11 view .LVU499
 1593              	.LBE11:
 274:usb_driver/Src/usb_core.c ****     }
 1594              		.loc 1 274 14 view .LVU500
 1595 0104 0224     		movs	r4, #2
 1596 0106 8BE7     		b	.L112
 1597              	.L120:
 1598 0108 0224     		movs	r4, #2
 1599 010a 89E7     		b	.L112
 1600              	.LVL135:
 1601              	.L121:
 296:usb_driver/Src/usb_core.c ****     }
 1602              		.loc 1 296 14 view .LVU501
 1603 010c 0224     		movs	r4, #2
 1604 010e 87E7     		b	.L112
 1605              	.L122:
 1606 0110 0224     		movs	r4, #2
 1607 0112 85E7     		b	.L112
 1608              	.LVL136:
 1609              	.L123:
 296:usb_driver/Src/usb_core.c ****     }
 1610              		.loc 1 296 14 view .LVU502
 1611 0114 0224     		movs	r4, #2
 1612 0116 83E7     		b	.L112
 1613              	.L131:
 1614              		.align	2
 1615              	.L130:
 1616 0118 00000000 		.word	pInformation
 1617 011c 00000000 		.word	Device_Table
 1618 0120 00000000 		.word	pUser_Standard_Requests
 1619 0124 00000000 		.word	Device_Property
 1620              	.LBE9:
 1621              		.cfi_endproc
 1622              	.LFE61:
 1624              		.section	.text.Standard_SetEndPointFeature,"ax",%progbits
 1625              		.align	1
 1626              		.global	Standard_SetEndPointFeature
 1627              		.syntax unified
 1628              		.thumb
 1629              		.thumb_func
 1630              		.fpu softvfp
 1632              	Standard_SetEndPointFeature:
 1633              	.LFB62:
 343:usb_driver/Src/usb_core.c ****   uint32_t    wIndex0;
 1634              		.loc 1 343 1 is_stmt 1 view -0
ARM GAS  /tmp/ccIB1023.s 			page 51


 1635              		.cfi_startproc
 1636              		@ args = 0, pretend = 0, frame = 0
 1637              		@ frame_needed = 0, uses_anonymous_args = 0
 1638 0000 10B5     		push	{r4, lr}
 1639              	.LCFI12:
 1640              		.cfi_def_cfa_offset 8
 1641              		.cfi_offset 4, -8
 1642              		.cfi_offset 14, -4
 344:usb_driver/Src/usb_core.c ****   uint32_t    Related_Endpoint;
 1643              		.loc 1 344 3 view .LVU504
 345:usb_driver/Src/usb_core.c ****   uint32_t    rEP;
 1644              		.loc 1 345 3 view .LVU505
 346:usb_driver/Src/usb_core.c ****   uint32_t    Status;
 1645              		.loc 1 346 3 view .LVU506
 347:usb_driver/Src/usb_core.c **** 
 1646              		.loc 1 347 3 view .LVU507
 349:usb_driver/Src/usb_core.c ****   rEP = wIndex0 & ~0x80;
 1647              		.loc 1 349 3 view .LVU508
 349:usb_driver/Src/usb_core.c ****   rEP = wIndex0 & ~0x80;
 1648              		.loc 1 349 25 is_stmt 0 view .LVU509
 1649 0002 2D4B     		ldr	r3, .L145
 1650 0004 1868     		ldr	r0, [r3]
 349:usb_driver/Src/usb_core.c ****   rEP = wIndex0 & ~0x80;
 1651              		.loc 1 349 27 view .LVU510
 1652 0006 4279     		ldrb	r2, [r0, #5]	@ zero_extendqisi2
 1653              	.LVL137:
 350:usb_driver/Src/usb_core.c ****   Related_Endpoint = ENDP0 + rEP;
 1654              		.loc 1 350 3 is_stmt 1 view .LVU511
 350:usb_driver/Src/usb_core.c ****   Related_Endpoint = ENDP0 + rEP;
 1655              		.loc 1 350 7 is_stmt 0 view .LVU512
 1656 0008 22F08003 		bic	r3, r2, #128
 1657              	.LVL138:
 351:usb_driver/Src/usb_core.c **** 
 1658              		.loc 1 351 3 is_stmt 1 view .LVU513
 353:usb_driver/Src/usb_core.c ****   {
 1659              		.loc 1 353 3 view .LVU514
 353:usb_driver/Src/usb_core.c ****   {
 1660              		.loc 1 353 7 is_stmt 0 view .LVU515
 1661 000c 52B2     		sxtb	r2, r2
 1662              	.LVL139:
 353:usb_driver/Src/usb_core.c ****   {
 1663              		.loc 1 353 6 view .LVU516
 1664 000e 002A     		cmp	r2, #0
 1665 0010 2EDB     		blt	.L143
 361:usb_driver/Src/usb_core.c ****   }
 1666              		.loc 1 361 5 is_stmt 1 view .LVU517
 361:usb_driver/Src/usb_core.c ****   }
 1667              		.loc 1 361 14 is_stmt 0 view .LVU518
 1668 0012 9900     		lsls	r1, r3, #2
 1669 0014 01F18041 		add	r1, r1, #1073741824
 1670 0018 01F5B841 		add	r1, r1, #23552
 1671 001c 0968     		ldr	r1, [r1]
 361:usb_driver/Src/usb_core.c ****   }
 1672              		.loc 1 361 12 view .LVU519
 1673 001e 01F44051 		and	r1, r1, #12288
 1674              	.LVL140:
 1675              	.L134:
ARM GAS  /tmp/ccIB1023.s 			page 52


 364:usb_driver/Src/usb_core.c ****       || pInformation->USBwValue != 0 || Status == 0
 1676              		.loc 1 364 3 is_stmt 1 view .LVU520
 364:usb_driver/Src/usb_core.c ****       || pInformation->USBwValue != 0 || Status == 0
 1677              		.loc 1 364 39 is_stmt 0 view .LVU521
 1678 0022 264C     		ldr	r4, .L145+4
 1679 0024 94F800C0 		ldrb	ip, [r4]	@ zero_extendqisi2
 364:usb_driver/Src/usb_core.c ****       || pInformation->USBwValue != 0 || Status == 0
 1680              		.loc 1 364 6 view .LVU522
 1681 0028 9C45     		cmp	ip, r3
 1682 002a 3DD9     		bls	.L138
 365:usb_driver/Src/usb_core.c ****       || pInformation->Current_Configuration == 0)
 1683              		.loc 1 365 24 view .LVU523
 1684 002c 4488     		ldrh	r4, [r0, #2]
 365:usb_driver/Src/usb_core.c ****       || pInformation->Current_Configuration == 0)
 1685              		.loc 1 365 7 view .LVU524
 1686 002e 002C     		cmp	r4, #0
 1687 0030 3CD1     		bne	.L139
 365:usb_driver/Src/usb_core.c ****       || pInformation->Current_Configuration == 0)
 1688              		.loc 1 365 39 discriminator 1 view .LVU525
 1689 0032 0029     		cmp	r1, #0
 1690 0034 3CD0     		beq	.L140
 366:usb_driver/Src/usb_core.c ****   {
 1691              		.loc 1 366 22 view .LVU526
 1692 0036 817A     		ldrb	r1, [r0, #10]	@ zero_extendqisi2
 1693              	.LVL141:
 366:usb_driver/Src/usb_core.c ****   {
 1694              		.loc 1 366 7 view .LVU527
 1695 0038 0029     		cmp	r1, #0
 1696 003a 3BD0     		beq	.L141
 372:usb_driver/Src/usb_core.c ****     {
 1697              		.loc 1 372 5 is_stmt 1 view .LVU528
 372:usb_driver/Src/usb_core.c ****     {
 1698              		.loc 1 372 8 is_stmt 0 view .LVU529
 1699 003c 002A     		cmp	r2, #0
 1700 003e 20DB     		blt	.L144
 1701              	.LBB12:
 381:usb_driver/Src/usb_core.c ****     }
 1702              		.loc 1 381 7 is_stmt 1 view .LVU530
 381:usb_driver/Src/usb_core.c ****     }
 1703              		.loc 1 381 7 view .LVU531
 1704 0040 9B00     		lsls	r3, r3, #2
 1705              	.LVL142:
 381:usb_driver/Src/usb_core.c ****     }
 1706              		.loc 1 381 7 is_stmt 0 view .LVU532
 1707 0042 03F18043 		add	r3, r3, #1073741824
 1708 0046 03F5B843 		add	r3, r3, #23552
 1709 004a 1A68     		ldr	r2, [r3]
 1710 004c 92B2     		uxth	r2, r2
 1711 004e 22F48042 		bic	r2, r2, #16384
 1712 0052 22F07002 		bic	r2, r2, #112
 1713              	.LVL143:
 381:usb_driver/Src/usb_core.c ****     }
 1714              		.loc 1 381 7 is_stmt 1 view .LVU533
 381:usb_driver/Src/usb_core.c ****     }
 1715              		.loc 1 381 7 view .LVU534
 1716 0056 82F48052 		eor	r2, r2, #4096
 1717              	.LVL144:
ARM GAS  /tmp/ccIB1023.s 			page 53


 381:usb_driver/Src/usb_core.c ****     }
 1718              		.loc 1 381 7 view .LVU535
 381:usb_driver/Src/usb_core.c ****     }
 1719              		.loc 1 381 7 view .LVU536
 1720 005a 42F40042 		orr	r2, r2, #32768
 1721              	.LVL145:
 381:usb_driver/Src/usb_core.c ****     }
 1722              		.loc 1 381 7 is_stmt 0 view .LVU537
 1723 005e 42F08002 		orr	r2, r2, #128
 1724 0062 1A60     		str	r2, [r3]
 1725              	.LVL146:
 1726              	.L137:
 381:usb_driver/Src/usb_core.c ****     }
 1727              		.loc 1 381 7 view .LVU538
 1728              	.LBE12:
 381:usb_driver/Src/usb_core.c ****     }
 1729              		.loc 1 381 52 is_stmt 1 discriminator 7 view .LVU539
 384:usb_driver/Src/usb_core.c ****   return USB_SUCCESS;
 1730              		.loc 1 384 3 discriminator 7 view .LVU540
 384:usb_driver/Src/usb_core.c ****   return USB_SUCCESS;
 1731              		.loc 1 384 26 is_stmt 0 discriminator 7 view .LVU541
 1732 0064 164B     		ldr	r3, .L145+8
 1733 0066 1B68     		ldr	r3, [r3]
 1734 0068 9B69     		ldr	r3, [r3, #24]
 384:usb_driver/Src/usb_core.c ****   return USB_SUCCESS;
 1735              		.loc 1 384 3 discriminator 7 view .LVU542
 1736 006a 9847     		blx	r3
 1737              	.LVL147:
 385:usb_driver/Src/usb_core.c **** }
 1738              		.loc 1 385 3 is_stmt 1 discriminator 7 view .LVU543
 385:usb_driver/Src/usb_core.c **** }
 1739              		.loc 1 385 10 is_stmt 0 discriminator 7 view .LVU544
 1740 006c 0020     		movs	r0, #0
 1741              	.L135:
 386:usb_driver/Src/usb_core.c **** 
 1742              		.loc 1 386 1 view .LVU545
 1743 006e 10BD     		pop	{r4, pc}
 1744              	.LVL148:
 1745              	.L143:
 357:usb_driver/Src/usb_core.c ****   }
 1746              		.loc 1 357 5 is_stmt 1 view .LVU546
 357:usb_driver/Src/usb_core.c ****   }
 1747              		.loc 1 357 14 is_stmt 0 view .LVU547
 1748 0070 9900     		lsls	r1, r3, #2
 1749 0072 01F18041 		add	r1, r1, #1073741824
 1750 0076 01F5B841 		add	r1, r1, #23552
 1751 007a 0968     		ldr	r1, [r1]
 357:usb_driver/Src/usb_core.c ****   }
 1752              		.loc 1 357 12 view .LVU548
 1753 007c 01F03001 		and	r1, r1, #48
 1754              	.LVL149:
 357:usb_driver/Src/usb_core.c ****   }
 1755              		.loc 1 357 12 view .LVU549
 1756 0080 CFE7     		b	.L134
 1757              	.LVL150:
 1758              	.L144:
 1759              	.LBB13:
ARM GAS  /tmp/ccIB1023.s 			page 54


 375:usb_driver/Src/usb_core.c ****     }
 1760              		.loc 1 375 7 is_stmt 1 view .LVU550
 375:usb_driver/Src/usb_core.c ****     }
 1761              		.loc 1 375 7 view .LVU551
 1762 0082 9B00     		lsls	r3, r3, #2
 1763              	.LVL151:
 375:usb_driver/Src/usb_core.c ****     }
 1764              		.loc 1 375 7 is_stmt 0 view .LVU552
 1765 0084 03F18043 		add	r3, r3, #1073741824
 1766 0088 03F5B843 		add	r3, r3, #23552
 1767 008c 1A68     		ldr	r2, [r3]
 1768 008e 92B2     		uxth	r2, r2
 1769 0090 22F4E042 		bic	r2, r2, #28672
 1770 0094 22F04002 		bic	r2, r2, #64
 1771              	.LVL152:
 375:usb_driver/Src/usb_core.c ****     }
 1772              		.loc 1 375 7 is_stmt 1 view .LVU553
 375:usb_driver/Src/usb_core.c ****     }
 1773              		.loc 1 375 7 view .LVU554
 1774 0098 82F01002 		eor	r2, r2, #16
 1775              	.LVL153:
 375:usb_driver/Src/usb_core.c ****     }
 1776              		.loc 1 375 7 view .LVU555
 375:usb_driver/Src/usb_core.c ****     }
 1777              		.loc 1 375 7 view .LVU556
 1778 009c 42F40042 		orr	r2, r2, #32768
 1779              	.LVL154:
 375:usb_driver/Src/usb_core.c ****     }
 1780              		.loc 1 375 7 is_stmt 0 view .LVU557
 1781 00a0 42F08002 		orr	r2, r2, #128
 1782 00a4 1A60     		str	r2, [r3]
 1783              	.LVL155:
 375:usb_driver/Src/usb_core.c ****     }
 1784              		.loc 1 375 7 view .LVU558
 1785              	.LBE13:
 375:usb_driver/Src/usb_core.c ****     }
 1786              		.loc 1 375 52 is_stmt 1 view .LVU559
 1787 00a6 DDE7     		b	.L137
 1788              	.LVL156:
 1789              	.L138:
 368:usb_driver/Src/usb_core.c ****   }
 1790              		.loc 1 368 12 is_stmt 0 view .LVU560
 1791 00a8 0220     		movs	r0, #2
 1792              	.LVL157:
 368:usb_driver/Src/usb_core.c ****   }
 1793              		.loc 1 368 12 view .LVU561
 1794 00aa E0E7     		b	.L135
 1795              	.LVL158:
 1796              	.L139:
 368:usb_driver/Src/usb_core.c ****   }
 1797              		.loc 1 368 12 view .LVU562
 1798 00ac 0220     		movs	r0, #2
 1799              	.LVL159:
 368:usb_driver/Src/usb_core.c ****   }
 1800              		.loc 1 368 12 view .LVU563
 1801 00ae DEE7     		b	.L135
 1802              	.LVL160:
ARM GAS  /tmp/ccIB1023.s 			page 55


 1803              	.L140:
 368:usb_driver/Src/usb_core.c ****   }
 1804              		.loc 1 368 12 view .LVU564
 1805 00b0 0220     		movs	r0, #2
 1806              	.LVL161:
 368:usb_driver/Src/usb_core.c ****   }
 1807              		.loc 1 368 12 view .LVU565
 1808 00b2 DCE7     		b	.L135
 1809              	.LVL162:
 1810              	.L141:
 368:usb_driver/Src/usb_core.c ****   }
 1811              		.loc 1 368 12 view .LVU566
 1812 00b4 0220     		movs	r0, #2
 1813              	.LVL163:
 368:usb_driver/Src/usb_core.c ****   }
 1814              		.loc 1 368 12 view .LVU567
 1815 00b6 DAE7     		b	.L135
 1816              	.L146:
 1817              		.align	2
 1818              	.L145:
 1819 00b8 00000000 		.word	pInformation
 1820 00bc 00000000 		.word	Device_Table
 1821 00c0 00000000 		.word	pUser_Standard_Requests
 1822              		.cfi_endproc
 1823              	.LFE62:
 1825              		.section	.text.Standard_SetDeviceFeature,"ax",%progbits
 1826              		.align	1
 1827              		.global	Standard_SetDeviceFeature
 1828              		.syntax unified
 1829              		.thumb
 1830              		.thumb_func
 1831              		.fpu softvfp
 1833              	Standard_SetDeviceFeature:
 1834              	.LFB63:
 397:usb_driver/Src/usb_core.c ****   SetBit(pInformation->Current_Feature, 5);
 1835              		.loc 1 397 1 is_stmt 1 view -0
 1836              		.cfi_startproc
 1837              		@ args = 0, pretend = 0, frame = 0
 1838              		@ frame_needed = 0, uses_anonymous_args = 0
 1839 0000 08B5     		push	{r3, lr}
 1840              	.LCFI13:
 1841              		.cfi_def_cfa_offset 8
 1842              		.cfi_offset 3, -8
 1843              		.cfi_offset 14, -4
 398:usb_driver/Src/usb_core.c ****   pUser_Standard_Requests->User_SetDeviceFeature();
 1844              		.loc 1 398 3 view .LVU569
 1845 0002 064B     		ldr	r3, .L149
 1846 0004 1A68     		ldr	r2, [r3]
 1847 0006 537A     		ldrb	r3, [r2, #9]	@ zero_extendqisi2
 1848 0008 43F02003 		orr	r3, r3, #32
 1849 000c 5372     		strb	r3, [r2, #9]
 399:usb_driver/Src/usb_core.c ****   return USB_SUCCESS;
 1850              		.loc 1 399 3 view .LVU570
 399:usb_driver/Src/usb_core.c ****   return USB_SUCCESS;
 1851              		.loc 1 399 26 is_stmt 0 view .LVU571
 1852 000e 044B     		ldr	r3, .L149+4
 1853 0010 1B68     		ldr	r3, [r3]
ARM GAS  /tmp/ccIB1023.s 			page 56


 1854 0012 DB69     		ldr	r3, [r3, #28]
 399:usb_driver/Src/usb_core.c ****   return USB_SUCCESS;
 1855              		.loc 1 399 3 view .LVU572
 1856 0014 9847     		blx	r3
 1857              	.LVL164:
 400:usb_driver/Src/usb_core.c **** }
 1858              		.loc 1 400 3 is_stmt 1 view .LVU573
 401:usb_driver/Src/usb_core.c **** 
 1859              		.loc 1 401 1 is_stmt 0 view .LVU574
 1860 0016 0020     		movs	r0, #0
 1861 0018 08BD     		pop	{r3, pc}
 1862              	.L150:
 1863 001a 00BF     		.align	2
 1864              	.L149:
 1865 001c 00000000 		.word	pInformation
 1866 0020 00000000 		.word	pUser_Standard_Requests
 1867              		.cfi_endproc
 1868              	.LFE63:
 1870              		.section	.text.NoData_Setup0,"ax",%progbits
 1871              		.align	1
 1872              		.syntax unified
 1873              		.thumb
 1874              		.thumb_func
 1875              		.fpu softvfp
 1877              	NoData_Setup0:
 1878              	.LFB67:
 561:usb_driver/Src/usb_core.c ****   RESULT Result = USB_UNSUPPORT;
 1879              		.loc 1 561 1 is_stmt 1 view -0
 1880              		.cfi_startproc
 1881              		@ args = 0, pretend = 0, frame = 0
 1882              		@ frame_needed = 0, uses_anonymous_args = 0
 1883 0000 10B5     		push	{r4, lr}
 1884              	.LCFI14:
 1885              		.cfi_def_cfa_offset 8
 1886              		.cfi_offset 4, -8
 1887              		.cfi_offset 14, -4
 562:usb_driver/Src/usb_core.c ****   uint32_t RequestNo = pInformation->USBbRequest;
 1888              		.loc 1 562 3 view .LVU576
 1889              	.LVL165:
 563:usb_driver/Src/usb_core.c ****   uint32_t ControlState;
 1890              		.loc 1 563 3 view .LVU577
 563:usb_driver/Src/usb_core.c ****   uint32_t ControlState;
 1891              		.loc 1 563 36 is_stmt 0 view .LVU578
 1892 0002 354B     		ldr	r3, .L175
 1893 0004 1A68     		ldr	r2, [r3]
 1894 0006 5478     		ldrb	r4, [r2, #1]	@ zero_extendqisi2
 1895              	.LVL166:
 564:usb_driver/Src/usb_core.c **** 
 1896              		.loc 1 564 3 is_stmt 1 view .LVU579
 566:usb_driver/Src/usb_core.c ****   {
 1897              		.loc 1 566 3 view .LVU580
 566:usb_driver/Src/usb_core.c ****   {
 1898              		.loc 1 566 7 is_stmt 0 view .LVU581
 1899 0008 1378     		ldrb	r3, [r2]	@ zero_extendqisi2
 566:usb_driver/Src/usb_core.c ****   {
 1900              		.loc 1 566 6 view .LVU582
 1901 000a 13F07F03 		ands	r3, r3, #127
ARM GAS  /tmp/ccIB1023.s 			page 57


 1902 000e 2DD1     		bne	.L152
 570:usb_driver/Src/usb_core.c ****     {
 1903              		.loc 1 570 5 is_stmt 1 view .LVU583
 570:usb_driver/Src/usb_core.c ****     {
 1904              		.loc 1 570 8 is_stmt 0 view .LVU584
 1905 0010 092C     		cmp	r4, #9
 1906 0012 11D0     		beq	.L169
 576:usb_driver/Src/usb_core.c ****     {
 1907              		.loc 1 576 10 is_stmt 1 view .LVU585
 576:usb_driver/Src/usb_core.c ****     {
 1908              		.loc 1 576 13 is_stmt 0 view .LVU586
 1909 0014 052C     		cmp	r4, #5
 1910 0016 13D0     		beq	.L170
 592:usb_driver/Src/usb_core.c ****     {
 1911              		.loc 1 592 10 is_stmt 1 view .LVU587
 592:usb_driver/Src/usb_core.c ****     {
 1912              		.loc 1 592 13 is_stmt 0 view .LVU588
 1913 0018 032C     		cmp	r4, #3
 1914 001a 1FD0     		beq	.L171
 605:usb_driver/Src/usb_core.c ****     {
 1915              		.loc 1 605 10 is_stmt 1 view .LVU589
 605:usb_driver/Src/usb_core.c ****     {
 1916              		.loc 1 605 13 is_stmt 0 view .LVU590
 1917 001c 012C     		cmp	r4, #1
 1918 001e 29D1     		bne	.L159
 607:usb_driver/Src/usb_core.c ****           && pInformation->USBwIndex == 0
 1919              		.loc 1 607 7 is_stmt 1 view .LVU591
 607:usb_driver/Src/usb_core.c ****           && pInformation->USBwIndex == 0
 1920              		.loc 1 607 25 is_stmt 0 view .LVU592
 1921 0020 D378     		ldrb	r3, [r2, #3]	@ zero_extendqisi2
 607:usb_driver/Src/usb_core.c ****           && pInformation->USBwIndex == 0
 1922              		.loc 1 607 10 view .LVU593
 1923 0022 012B     		cmp	r3, #1
 1924 0024 26D1     		bne	.L159
 608:usb_driver/Src/usb_core.c ****           && ValBit(pInformation->Current_Feature, 5))
 1925              		.loc 1 608 28 view .LVU594
 1926 0026 9388     		ldrh	r3, [r2, #4]
 608:usb_driver/Src/usb_core.c ****           && ValBit(pInformation->Current_Feature, 5))
 1927              		.loc 1 608 11 view .LVU595
 1928 0028 23BB     		cbnz	r3, .L159
 609:usb_driver/Src/usb_core.c ****       {
 1929              		.loc 1 609 14 view .LVU596
 1930 002a 537A     		ldrb	r3, [r2, #9]	@ zero_extendqisi2
 609:usb_driver/Src/usb_core.c ****       {
 1931              		.loc 1 609 11 view .LVU597
 1932 002c 13F0200F 		tst	r3, #32
 1933 0030 20D0     		beq	.L159
 611:usb_driver/Src/usb_core.c ****       }
 1934              		.loc 1 611 9 is_stmt 1 view .LVU598
 611:usb_driver/Src/usb_core.c ****       }
 1935              		.loc 1 611 18 is_stmt 0 view .LVU599
 1936 0032 FFF7FEFF 		bl	Standard_ClearFeature
 1937              	.LVL167:
 611:usb_driver/Src/usb_core.c ****       }
 1938              		.loc 1 611 16 view .LVU600
 1939 0036 01E0     		b	.L154
 1940              	.LVL168:
ARM GAS  /tmp/ccIB1023.s 			page 58


 1941              	.L169:
 572:usb_driver/Src/usb_core.c ****     }
 1942              		.loc 1 572 7 is_stmt 1 view .LVU601
 572:usb_driver/Src/usb_core.c ****     }
 1943              		.loc 1 572 16 is_stmt 0 view .LVU602
 1944 0038 FFF7FEFF 		bl	Standard_SetConfiguration
 1945              	.LVL169:
 1946              	.L154:
 651:usb_driver/Src/usb_core.c ****   {
 1947              		.loc 1 651 3 is_stmt 1 view .LVU603
 651:usb_driver/Src/usb_core.c ****   {
 1948              		.loc 1 651 6 is_stmt 0 view .LVU604
 1949 003c 08B3     		cbz	r0, .L157
 651:usb_driver/Src/usb_core.c ****   {
 1950              		.loc 1 651 6 view .LVU605
 1951 003e 19E0     		b	.L159
 1952              	.LVL170:
 1953              	.L170:
 578:usb_driver/Src/usb_core.c ****           || (pInformation->USBwIndex != 0)
 1954              		.loc 1 578 7 is_stmt 1 view .LVU606
 578:usb_driver/Src/usb_core.c ****           || (pInformation->USBwIndex != 0)
 1955              		.loc 1 578 37 is_stmt 0 view .LVU607
 1956 0040 92F90330 		ldrsb	r3, [r2, #3]
 578:usb_driver/Src/usb_core.c ****           || (pInformation->USBwIndex != 0)
 1957              		.loc 1 578 10 view .LVU608
 1958 0044 002B     		cmp	r3, #0
 1959 0046 3DDB     		blt	.L162
 578:usb_driver/Src/usb_core.c ****           || (pInformation->USBwIndex != 0)
 1960              		.loc 1 578 62 discriminator 1 view .LVU609
 1961 0048 9378     		ldrb	r3, [r2, #2]	@ zero_extendqisi2
 578:usb_driver/Src/usb_core.c ****           || (pInformation->USBwIndex != 0)
 1962              		.loc 1 578 44 discriminator 1 view .LVU610
 1963 004a 002B     		cmp	r3, #0
 1964 004c 3CD1     		bne	.L163
 579:usb_driver/Src/usb_core.c ****           || (pInformation->Current_Configuration != 0))
 1965              		.loc 1 579 29 view .LVU611
 1966 004e 9388     		ldrh	r3, [r2, #4]
 579:usb_driver/Src/usb_core.c ****           || (pInformation->Current_Configuration != 0))
 1967              		.loc 1 579 11 view .LVU612
 1968 0050 002B     		cmp	r3, #0
 1969 0052 3BD1     		bne	.L164
 580:usb_driver/Src/usb_core.c ****         /* Device Address should be 127 or less*/
 1970              		.loc 1 580 27 view .LVU613
 1971 0054 907A     		ldrb	r0, [r2, #10]	@ zero_extendqisi2
 580:usb_driver/Src/usb_core.c ****         /* Device Address should be 127 or less*/
 1972              		.loc 1 580 11 view .LVU614
 1973 0056 A0B1     		cbz	r0, .L157
 583:usb_driver/Src/usb_core.c ****         goto exit_NoData_Setup0;
 1974              		.loc 1 583 22 view .LVU615
 1975 0058 0822     		movs	r2, #8
 1976 005a 20E0     		b	.L156
 1977              	.L171:
 594:usb_driver/Src/usb_core.c ****           && (pInformation->USBwIndex == 0))
 1978              		.loc 1 594 7 is_stmt 1 view .LVU616
 594:usb_driver/Src/usb_core.c ****           && (pInformation->USBwIndex == 0))
 1979              		.loc 1 594 26 is_stmt 0 view .LVU617
 1980 005c D378     		ldrb	r3, [r2, #3]	@ zero_extendqisi2
ARM GAS  /tmp/ccIB1023.s 			page 59


 594:usb_driver/Src/usb_core.c ****           && (pInformation->USBwIndex == 0))
 1981              		.loc 1 594 10 view .LVU618
 1982 005e 012B     		cmp	r3, #1
 1983 0060 08D1     		bne	.L159
 595:usb_driver/Src/usb_core.c ****       {
 1984              		.loc 1 595 29 view .LVU619
 1985 0062 9388     		ldrh	r3, [r2, #4]
 595:usb_driver/Src/usb_core.c ****       {
 1986              		.loc 1 595 11 view .LVU620
 1987 0064 33B9     		cbnz	r3, .L159
 597:usb_driver/Src/usb_core.c ****       }
 1988              		.loc 1 597 9 is_stmt 1 view .LVU621
 597:usb_driver/Src/usb_core.c ****       }
 1989              		.loc 1 597 18 is_stmt 0 view .LVU622
 1990 0066 FFF7FEFF 		bl	Standard_SetDeviceFeature
 1991              	.LVL171:
 597:usb_driver/Src/usb_core.c ****       }
 1992              		.loc 1 597 16 view .LVU623
 1993 006a E7E7     		b	.L154
 1994              	.LVL172:
 1995              	.L152:
 622:usb_driver/Src/usb_core.c ****   {
 1996              		.loc 1 622 8 is_stmt 1 view .LVU624
 622:usb_driver/Src/usb_core.c ****   {
 1997              		.loc 1 622 11 is_stmt 0 view .LVU625
 1998 006c 012B     		cmp	r3, #1
 1999 006e 1AD0     		beq	.L172
 632:usb_driver/Src/usb_core.c ****   {
 2000              		.loc 1 632 8 is_stmt 1 view .LVU626
 632:usb_driver/Src/usb_core.c ****   {
 2001              		.loc 1 632 11 is_stmt 0 view .LVU627
 2002 0070 022B     		cmp	r3, #2
 2003 0072 1DD0     		beq	.L173
 2004              	.LVL173:
 2005              	.L159:
 653:usb_driver/Src/usb_core.c ****     if (Result == USB_NOT_READY)
 2006              		.loc 1 653 5 is_stmt 1 view .LVU628
 653:usb_driver/Src/usb_core.c ****     if (Result == USB_NOT_READY)
 2007              		.loc 1 653 25 is_stmt 0 view .LVU629
 2008 0074 194B     		ldr	r3, .L175+4
 2009 0076 1B68     		ldr	r3, [r3]
 653:usb_driver/Src/usb_core.c ****     if (Result == USB_NOT_READY)
 2010              		.loc 1 653 15 view .LVU630
 2011 0078 5B69     		ldr	r3, [r3, #20]
 2012 007a 2046     		mov	r0, r4
 2013 007c 9847     		blx	r3
 2014              	.LVL174:
 654:usb_driver/Src/usb_core.c ****     {
 2015              		.loc 1 654 5 is_stmt 1 view .LVU631
 654:usb_driver/Src/usb_core.c ****     {
 2016              		.loc 1 654 8 is_stmt 0 view .LVU632
 2017 007e 0328     		cmp	r0, #3
 2018 0080 26D0     		beq	.L166
 2019              	.LVL175:
 2020              	.L157:
 661:usb_driver/Src/usb_core.c ****   {
 2021              		.loc 1 661 3 is_stmt 1 view .LVU633
ARM GAS  /tmp/ccIB1023.s 			page 60


 661:usb_driver/Src/usb_core.c ****   {
 2022              		.loc 1 661 6 is_stmt 0 view .LVU634
 2023 0082 38BB     		cbnz	r0, .L167
 667:usb_driver/Src/usb_core.c **** 
 2024              		.loc 1 667 3 is_stmt 1 view .LVU635
 2025              	.LVL176:
 669:usb_driver/Src/usb_core.c **** 
 2026              		.loc 1 669 3 view .LVU636
 2027 0084 164B     		ldr	r3, .L175+8
 2028 0086 D3F8502C 		ldr	r2, [r3, #3152]
 2029 008a 92B2     		uxth	r2, r2
 2030 008c 154B     		ldr	r3, .L175+12
 2031 008e 1344     		add	r3, r3, r2
 2032 0090 5B00     		lsls	r3, r3, #1
 2033 0092 0022     		movs	r2, #0
 2034 0094 1A60     		str	r2, [r3]
 669:usb_driver/Src/usb_core.c **** 
 2035              		.loc 1 669 3 view .LVU637
 2036 0096 144B     		ldr	r3, .L175+16
 2037 0098 3022     		movs	r2, #48
 2038 009a 1A80     		strh	r2, [r3]	@ movhi
 667:usb_driver/Src/usb_core.c **** 
 2039              		.loc 1 667 16 is_stmt 0 view .LVU638
 2040 009c 0622     		movs	r2, #6
 2041              	.LVL177:
 2042              	.L156:
 669:usb_driver/Src/usb_core.c **** 
 2043              		.loc 1 669 17 is_stmt 1 discriminator 1 view .LVU639
 672:usb_driver/Src/usb_core.c ****   return;
 2044              		.loc 1 672 3 discriminator 1 view .LVU640
 672:usb_driver/Src/usb_core.c ****   return;
 2045              		.loc 1 672 15 is_stmt 0 discriminator 1 view .LVU641
 2046 009e 0E4B     		ldr	r3, .L175
 2047 00a0 1B68     		ldr	r3, [r3]
 672:usb_driver/Src/usb_core.c ****   return;
 2048              		.loc 1 672 30 discriminator 1 view .LVU642
 2049 00a2 1A72     		strb	r2, [r3, #8]
 673:usb_driver/Src/usb_core.c **** }
 2050              		.loc 1 673 3 is_stmt 1 discriminator 1 view .LVU643
 674:usb_driver/Src/usb_core.c **** 
 2051              		.loc 1 674 1 is_stmt 0 discriminator 1 view .LVU644
 2052 00a4 10BD     		pop	{r4, pc}
 2053              	.LVL178:
 2054              	.L172:
 625:usb_driver/Src/usb_core.c ****     {
 2055              		.loc 1 625 5 is_stmt 1 view .LVU645
 625:usb_driver/Src/usb_core.c ****     {
 2056              		.loc 1 625 8 is_stmt 0 view .LVU646
 2057 00a6 0B2C     		cmp	r4, #11
 2058 00a8 E4D1     		bne	.L159
 627:usb_driver/Src/usb_core.c ****     }
 2059              		.loc 1 627 7 is_stmt 1 view .LVU647
 627:usb_driver/Src/usb_core.c ****     }
 2060              		.loc 1 627 16 is_stmt 0 view .LVU648
 2061 00aa FFF7FEFF 		bl	Standard_SetInterface
 2062              	.LVL179:
 627:usb_driver/Src/usb_core.c ****     }
ARM GAS  /tmp/ccIB1023.s 			page 61


 2063              		.loc 1 627 16 view .LVU649
 2064 00ae C5E7     		b	.L154
 2065              	.LVL180:
 2066              	.L173:
 635:usb_driver/Src/usb_core.c ****     {
 2067              		.loc 1 635 5 is_stmt 1 view .LVU650
 635:usb_driver/Src/usb_core.c ****     {
 2068              		.loc 1 635 8 is_stmt 0 view .LVU651
 2069 00b0 012C     		cmp	r4, #1
 2070 00b2 04D0     		beq	.L174
 640:usb_driver/Src/usb_core.c ****     {
 2071              		.loc 1 640 10 is_stmt 1 view .LVU652
 640:usb_driver/Src/usb_core.c ****     {
 2072              		.loc 1 640 13 is_stmt 0 view .LVU653
 2073 00b4 032C     		cmp	r4, #3
 2074 00b6 DDD1     		bne	.L159
 642:usb_driver/Src/usb_core.c ****     }
 2075              		.loc 1 642 7 is_stmt 1 view .LVU654
 642:usb_driver/Src/usb_core.c ****     }
 2076              		.loc 1 642 16 is_stmt 0 view .LVU655
 2077 00b8 FFF7FEFF 		bl	Standard_SetEndPointFeature
 2078              	.LVL181:
 642:usb_driver/Src/usb_core.c ****     }
 2079              		.loc 1 642 16 view .LVU656
 2080 00bc BEE7     		b	.L154
 2081              	.LVL182:
 2082              	.L174:
 637:usb_driver/Src/usb_core.c ****     }
 2083              		.loc 1 637 7 is_stmt 1 view .LVU657
 637:usb_driver/Src/usb_core.c ****     }
 2084              		.loc 1 637 16 is_stmt 0 view .LVU658
 2085 00be FFF7FEFF 		bl	Standard_ClearFeature
 2086              	.LVL183:
 637:usb_driver/Src/usb_core.c ****     }
 2087              		.loc 1 637 16 view .LVU659
 2088 00c2 BBE7     		b	.L154
 2089              	.LVL184:
 2090              	.L162:
 583:usb_driver/Src/usb_core.c ****         goto exit_NoData_Setup0;
 2091              		.loc 1 583 22 view .LVU660
 2092 00c4 0822     		movs	r2, #8
 2093 00c6 EAE7     		b	.L156
 2094              	.L163:
 2095 00c8 0822     		movs	r2, #8
 2096 00ca E8E7     		b	.L156
 2097              	.L164:
 2098 00cc 0822     		movs	r2, #8
 2099 00ce E6E7     		b	.L156
 2100              	.LVL185:
 2101              	.L166:
 656:usb_driver/Src/usb_core.c ****       goto exit_NoData_Setup0;
 2102              		.loc 1 656 20 view .LVU661
 2103 00d0 0922     		movs	r2, #9
 2104 00d2 E4E7     		b	.L156
 2105              	.L167:
 663:usb_driver/Src/usb_core.c ****     goto exit_NoData_Setup0;
 2106              		.loc 1 663 18 view .LVU662
ARM GAS  /tmp/ccIB1023.s 			page 62


 2107 00d4 0822     		movs	r2, #8
 2108 00d6 E2E7     		b	.L156
 2109              	.L176:
 2110              		.align	2
 2111              	.L175:
 2112 00d8 00000000 		.word	pInformation
 2113 00dc 00000000 		.word	pProperty
 2114 00e0 00500040 		.word	1073762304
 2115 00e4 02300020 		.word	536883202
 2116 00e8 00000000 		.word	SaveTState
 2117              		.cfi_endproc
 2118              	.LFE67:
 2120              		.section	.text.Standard_GetDescriptorData,"ax",%progbits
 2121              		.align	1
 2122              		.global	Standard_GetDescriptorData
 2123              		.syntax unified
 2124              		.thumb
 2125              		.thumb_func
 2126              		.fpu softvfp
 2128              	Standard_GetDescriptorData:
 2129              	.LVL186:
 2130              	.LFB64:
 423:usb_driver/Src/usb_core.c ****   uint32_t  wOffset;
 2131              		.loc 1 423 1 is_stmt 1 view -0
 2132              		.cfi_startproc
 2133              		@ args = 0, pretend = 0, frame = 0
 2134              		@ frame_needed = 0, uses_anonymous_args = 0
 2135              		@ link register save eliminated.
 424:usb_driver/Src/usb_core.c **** 
 2136              		.loc 1 424 3 view .LVU664
 426:usb_driver/Src/usb_core.c ****   if (Length == 0)
 2137              		.loc 1 426 3 view .LVU665
 426:usb_driver/Src/usb_core.c ****   if (Length == 0)
 2138              		.loc 1 426 25 is_stmt 0 view .LVU666
 2139 0000 054B     		ldr	r3, .L181
 2140 0002 1B68     		ldr	r3, [r3]
 426:usb_driver/Src/usb_core.c ****   if (Length == 0)
 2141              		.loc 1 426 36 view .LVU667
 2142 0004 5A8A     		ldrh	r2, [r3, #18]
 2143              	.LVL187:
 427:usb_driver/Src/usb_core.c ****   {
 2144              		.loc 1 427 3 is_stmt 1 view .LVU668
 427:usb_driver/Src/usb_core.c ****   {
 2145              		.loc 1 427 6 is_stmt 0 view .LVU669
 2146 0006 10B1     		cbz	r0, .L180
 433:usb_driver/Src/usb_core.c **** }
 2147              		.loc 1 433 3 is_stmt 1 view .LVU670
 433:usb_driver/Src/usb_core.c **** }
 2148              		.loc 1 433 15 is_stmt 0 view .LVU671
 2149 0008 0868     		ldr	r0, [r1]
 2150              	.LVL188:
 433:usb_driver/Src/usb_core.c **** }
 2151              		.loc 1 433 28 view .LVU672
 2152 000a 1044     		add	r0, r0, r2
 434:usb_driver/Src/usb_core.c **** 
 2153              		.loc 1 434 1 view .LVU673
 2154 000c 7047     		bx	lr
ARM GAS  /tmp/ccIB1023.s 			page 63


 2155              	.LVL189:
 2156              	.L180:
 429:usb_driver/Src/usb_core.c ****     return 0;
 2157              		.loc 1 429 5 is_stmt 1 view .LVU674
 429:usb_driver/Src/usb_core.c ****     return 0;
 2158              		.loc 1 429 48 is_stmt 0 view .LVU675
 2159 000e 8888     		ldrh	r0, [r1, #4]
 2160              	.LVL190:
 429:usb_driver/Src/usb_core.c ****     return 0;
 2161              		.loc 1 429 66 view .LVU676
 2162 0010 801A     		subs	r0, r0, r2
 429:usb_driver/Src/usb_core.c ****     return 0;
 2163              		.loc 1 429 41 view .LVU677
 2164 0012 1882     		strh	r0, [r3, #16]	@ movhi
 430:usb_driver/Src/usb_core.c ****   }
 2165              		.loc 1 430 5 is_stmt 1 view .LVU678
 430:usb_driver/Src/usb_core.c ****   }
 2166              		.loc 1 430 12 is_stmt 0 view .LVU679
 2167 0014 0020     		movs	r0, #0
 2168 0016 7047     		bx	lr
 2169              	.L182:
 2170              		.align	2
 2171              	.L181:
 2172 0018 00000000 		.word	pInformation
 2173              		.cfi_endproc
 2174              	.LFE64:
 2176              		.section	.text.Post0_Process,"ax",%progbits
 2177              		.align	1
 2178              		.global	Post0_Process
 2179              		.syntax unified
 2180              		.thumb
 2181              		.thumb_func
 2182              		.fpu softvfp
 2184              	Post0_Process:
 2185              	.LFB72:
 854:usb_driver/Src/usb_core.c **** 
 855:usb_driver/Src/usb_core.c **** /*******************************************************************************
 856:usb_driver/Src/usb_core.c **** * Function Name  : Setup0_Process
 857:usb_driver/Src/usb_core.c **** * Description    : Get the device request data and dispatch to individual process.
 858:usb_driver/Src/usb_core.c **** * Input          : None.
 859:usb_driver/Src/usb_core.c **** * Output         : None.
 860:usb_driver/Src/usb_core.c **** * Return         : Post0_Process.
 861:usb_driver/Src/usb_core.c **** *******************************************************************************/
 862:usb_driver/Src/usb_core.c **** uint8_t Setup0_Process(void)
 863:usb_driver/Src/usb_core.c **** {
 864:usb_driver/Src/usb_core.c **** 
 865:usb_driver/Src/usb_core.c ****   union
 866:usb_driver/Src/usb_core.c ****   {
 867:usb_driver/Src/usb_core.c ****     uint8_t* b;
 868:usb_driver/Src/usb_core.c ****     uint16_t* w;
 869:usb_driver/Src/usb_core.c ****   } pBuf;
 870:usb_driver/Src/usb_core.c ****   uint16_t offset = 1;
 871:usb_driver/Src/usb_core.c ****   
 872:usb_driver/Src/usb_core.c ****   pBuf.b = PMAAddr + (uint8_t *)(_GetEPRxAddr(ENDP0) * 2); /* *2 for 32 bits addr */
 873:usb_driver/Src/usb_core.c **** 
 874:usb_driver/Src/usb_core.c ****   if (pInformation->ControlState != PAUSE)
 875:usb_driver/Src/usb_core.c ****   {
ARM GAS  /tmp/ccIB1023.s 			page 64


 876:usb_driver/Src/usb_core.c ****     pInformation->USBbmRequestType = *pBuf.b++; /* bmRequestType */
 877:usb_driver/Src/usb_core.c ****     pInformation->USBbRequest = *pBuf.b++; /* bRequest */
 878:usb_driver/Src/usb_core.c ****     pBuf.w += offset;  /* word not accessed because of 32 bits addressing */
 879:usb_driver/Src/usb_core.c ****     pInformation->USBwValue = ByteSwap(*pBuf.w++); /* wValue */
 880:usb_driver/Src/usb_core.c ****     pBuf.w += offset;  /* word not accessed because of 32 bits addressing */
 881:usb_driver/Src/usb_core.c ****     pInformation->USBwIndex  = ByteSwap(*pBuf.w++); /* wIndex */
 882:usb_driver/Src/usb_core.c ****     pBuf.w += offset;  /* word not accessed because of 32 bits addressing */
 883:usb_driver/Src/usb_core.c ****     pInformation->USBwLength = *pBuf.w; /* wLength */
 884:usb_driver/Src/usb_core.c ****   }
 885:usb_driver/Src/usb_core.c **** 
 886:usb_driver/Src/usb_core.c ****   pInformation->ControlState = SETTING_UP;
 887:usb_driver/Src/usb_core.c ****   if (pInformation->USBwLength == 0)
 888:usb_driver/Src/usb_core.c ****   {
 889:usb_driver/Src/usb_core.c ****     /* Setup with no data stage */
 890:usb_driver/Src/usb_core.c ****     NoData_Setup0();
 891:usb_driver/Src/usb_core.c ****   }
 892:usb_driver/Src/usb_core.c ****   else
 893:usb_driver/Src/usb_core.c ****   {
 894:usb_driver/Src/usb_core.c ****     /* Setup with data stage */
 895:usb_driver/Src/usb_core.c ****     Data_Setup0();
 896:usb_driver/Src/usb_core.c ****   }
 897:usb_driver/Src/usb_core.c ****   return Post0_Process();
 898:usb_driver/Src/usb_core.c **** }
 899:usb_driver/Src/usb_core.c **** 
 900:usb_driver/Src/usb_core.c **** /*******************************************************************************
 901:usb_driver/Src/usb_core.c **** * Function Name  : In0_Process
 902:usb_driver/Src/usb_core.c **** * Description    : Process the IN token on all default endpoint.
 903:usb_driver/Src/usb_core.c **** * Input          : None.
 904:usb_driver/Src/usb_core.c **** * Output         : None.
 905:usb_driver/Src/usb_core.c **** * Return         : Post0_Process.
 906:usb_driver/Src/usb_core.c **** *******************************************************************************/
 907:usb_driver/Src/usb_core.c **** uint8_t In0_Process(void)
 908:usb_driver/Src/usb_core.c **** {
 909:usb_driver/Src/usb_core.c ****   uint32_t ControlState = pInformation->ControlState;
 910:usb_driver/Src/usb_core.c **** 
 911:usb_driver/Src/usb_core.c ****   if ((ControlState == IN_DATA) || (ControlState == LAST_IN_DATA))
 912:usb_driver/Src/usb_core.c ****   {
 913:usb_driver/Src/usb_core.c ****     DataStageIn();
 914:usb_driver/Src/usb_core.c ****     /* ControlState may be changed outside the function */
 915:usb_driver/Src/usb_core.c ****     ControlState = pInformation->ControlState;
 916:usb_driver/Src/usb_core.c ****   }
 917:usb_driver/Src/usb_core.c **** 
 918:usb_driver/Src/usb_core.c ****   else if (ControlState == WAIT_STATUS_IN)
 919:usb_driver/Src/usb_core.c ****   {
 920:usb_driver/Src/usb_core.c ****     if ((pInformation->USBbRequest == SET_ADDRESS) &&
 921:usb_driver/Src/usb_core.c ****         (Type_Recipient == (STANDARD_REQUEST | DEVICE_RECIPIENT)))
 922:usb_driver/Src/usb_core.c ****     {
 923:usb_driver/Src/usb_core.c ****       SetDeviceAddress(pInformation->USBwValue0);
 924:usb_driver/Src/usb_core.c ****       pUser_Standard_Requests->User_SetDeviceAddress();
 925:usb_driver/Src/usb_core.c ****     }
 926:usb_driver/Src/usb_core.c ****     (*pProperty->Process_Status_IN)();
 927:usb_driver/Src/usb_core.c ****     ControlState = STALLED;
 928:usb_driver/Src/usb_core.c ****   }
 929:usb_driver/Src/usb_core.c **** 
 930:usb_driver/Src/usb_core.c ****   else
 931:usb_driver/Src/usb_core.c ****   {
 932:usb_driver/Src/usb_core.c ****     ControlState = STALLED;
ARM GAS  /tmp/ccIB1023.s 			page 65


 933:usb_driver/Src/usb_core.c ****   }
 934:usb_driver/Src/usb_core.c **** 
 935:usb_driver/Src/usb_core.c ****   pInformation->ControlState = ControlState;
 936:usb_driver/Src/usb_core.c **** 
 937:usb_driver/Src/usb_core.c ****   return Post0_Process();
 938:usb_driver/Src/usb_core.c **** }
 939:usb_driver/Src/usb_core.c **** 
 940:usb_driver/Src/usb_core.c **** /*******************************************************************************
 941:usb_driver/Src/usb_core.c **** * Function Name  : Out0_Process
 942:usb_driver/Src/usb_core.c **** * Description    : Process the OUT token on all default endpoint.
 943:usb_driver/Src/usb_core.c **** * Input          : None.
 944:usb_driver/Src/usb_core.c **** * Output         : None.
 945:usb_driver/Src/usb_core.c **** * Return         : Post0_Process.
 946:usb_driver/Src/usb_core.c **** *******************************************************************************/
 947:usb_driver/Src/usb_core.c **** uint8_t Out0_Process(void)
 948:usb_driver/Src/usb_core.c **** {
 949:usb_driver/Src/usb_core.c ****   uint32_t ControlState = pInformation->ControlState;
 950:usb_driver/Src/usb_core.c **** 
 951:usb_driver/Src/usb_core.c ****   if ((ControlState == IN_DATA) || (ControlState == LAST_IN_DATA))
 952:usb_driver/Src/usb_core.c ****   {
 953:usb_driver/Src/usb_core.c ****     /* host aborts the transfer before finish */
 954:usb_driver/Src/usb_core.c ****     ControlState = STALLED;
 955:usb_driver/Src/usb_core.c ****   }
 956:usb_driver/Src/usb_core.c ****   else if ((ControlState == OUT_DATA) || (ControlState == LAST_OUT_DATA))
 957:usb_driver/Src/usb_core.c ****   {
 958:usb_driver/Src/usb_core.c ****     DataStageOut();
 959:usb_driver/Src/usb_core.c ****     ControlState = pInformation->ControlState; /* may be changed outside the function */
 960:usb_driver/Src/usb_core.c ****   }
 961:usb_driver/Src/usb_core.c **** 
 962:usb_driver/Src/usb_core.c ****   else if (ControlState == WAIT_STATUS_OUT)
 963:usb_driver/Src/usb_core.c ****   {
 964:usb_driver/Src/usb_core.c ****     (*pProperty->Process_Status_OUT)();
 965:usb_driver/Src/usb_core.c ****     ControlState = STALLED;
 966:usb_driver/Src/usb_core.c ****   }
 967:usb_driver/Src/usb_core.c **** 
 968:usb_driver/Src/usb_core.c **** 
 969:usb_driver/Src/usb_core.c ****   /* Unexpect state, STALL the endpoint */
 970:usb_driver/Src/usb_core.c ****   else
 971:usb_driver/Src/usb_core.c ****   {
 972:usb_driver/Src/usb_core.c ****     ControlState = STALLED;
 973:usb_driver/Src/usb_core.c ****   }
 974:usb_driver/Src/usb_core.c **** 
 975:usb_driver/Src/usb_core.c ****   pInformation->ControlState = ControlState;
 976:usb_driver/Src/usb_core.c **** 
 977:usb_driver/Src/usb_core.c ****   return Post0_Process();
 978:usb_driver/Src/usb_core.c **** }
 979:usb_driver/Src/usb_core.c **** 
 980:usb_driver/Src/usb_core.c **** /*******************************************************************************
 981:usb_driver/Src/usb_core.c **** * Function Name  : Post0_Process
 982:usb_driver/Src/usb_core.c **** * Description    : Stall the Endpoint 0 in case of error.
 983:usb_driver/Src/usb_core.c **** * Input          : None.
 984:usb_driver/Src/usb_core.c **** * Output         : None.
 985:usb_driver/Src/usb_core.c **** * Return         : - 0 if the control State is in PAUSE
 986:usb_driver/Src/usb_core.c **** *                  - 1 if not.
 987:usb_driver/Src/usb_core.c **** *******************************************************************************/
 988:usb_driver/Src/usb_core.c **** uint8_t Post0_Process(void)
 989:usb_driver/Src/usb_core.c **** {
ARM GAS  /tmp/ccIB1023.s 			page 66


 2186              		.loc 1 989 1 is_stmt 1 view -0
 2187              		.cfi_startproc
 2188              		@ args = 0, pretend = 0, frame = 0
 2189              		@ frame_needed = 0, uses_anonymous_args = 0
 2190 0000 08B5     		push	{r3, lr}
 2191              	.LCFI15:
 2192              		.cfi_def_cfa_offset 8
 2193              		.cfi_offset 3, -8
 2194              		.cfi_offset 14, -4
 990:usb_driver/Src/usb_core.c ****    
 991:usb_driver/Src/usb_core.c ****   SetEPRxCount(ENDP0, Device_Property.MaxPacketSize);
 2195              		.loc 1 991 3 view .LVU681
 2196 0002 0C4B     		ldr	r3, .L187
 2197 0004 93F82C10 		ldrb	r1, [r3, #44]	@ zero_extendqisi2
 2198 0008 0020     		movs	r0, #0
 2199 000a FFF7FEFF 		bl	SetEPRxCount
 2200              	.LVL191:
 992:usb_driver/Src/usb_core.c **** 
 993:usb_driver/Src/usb_core.c ****   if (pInformation->ControlState == STALLED)
 2201              		.loc 1 993 3 view .LVU682
 2202              		.loc 1 993 19 is_stmt 0 view .LVU683
 2203 000e 0A4B     		ldr	r3, .L187+4
 2204 0010 1B68     		ldr	r3, [r3]
 2205 0012 187A     		ldrb	r0, [r3, #8]	@ zero_extendqisi2
 2206              		.loc 1 993 6 view .LVU684
 2207 0014 0828     		cmp	r0, #8
 2208 0016 04D0     		beq	.L186
 2209              	.L184:
 994:usb_driver/Src/usb_core.c ****   {
 995:usb_driver/Src/usb_core.c ****     vSetEPRxStatus(EP_RX_STALL);
 996:usb_driver/Src/usb_core.c ****     vSetEPTxStatus(EP_TX_STALL);
 997:usb_driver/Src/usb_core.c ****   }
 998:usb_driver/Src/usb_core.c **** 
 999:usb_driver/Src/usb_core.c ****   return (pInformation->ControlState == PAUSE);
 2210              		.loc 1 999 3 is_stmt 1 view .LVU685
1000:usb_driver/Src/usb_core.c **** }
 2211              		.loc 1 1000 1 is_stmt 0 view .LVU686
 2212 0018 0928     		cmp	r0, #9
 2213 001a 14BF     		ite	ne
 2214 001c 0020     		movne	r0, #0
 2215 001e 0120     		moveq	r0, #1
 2216 0020 08BD     		pop	{r3, pc}
 2217              	.L186:
 995:usb_driver/Src/usb_core.c ****     vSetEPTxStatus(EP_TX_STALL);
 2218              		.loc 1 995 5 is_stmt 1 view .LVU687
 2219 0022 064B     		ldr	r3, .L187+8
 2220 0024 4FF48052 		mov	r2, #4096
 2221 0028 1A80     		strh	r2, [r3]	@ movhi
 996:usb_driver/Src/usb_core.c ****   }
 2222              		.loc 1 996 5 view .LVU688
 2223 002a 054B     		ldr	r3, .L187+12
 2224 002c 1022     		movs	r2, #16
 2225 002e 1A80     		strh	r2, [r3]	@ movhi
 2226 0030 F2E7     		b	.L184
 2227              	.L188:
 2228 0032 00BF     		.align	2
 2229              	.L187:
ARM GAS  /tmp/ccIB1023.s 			page 67


 2230 0034 00000000 		.word	Device_Property
 2231 0038 00000000 		.word	pInformation
 2232 003c 00000000 		.word	SaveRState
 2233 0040 00000000 		.word	SaveTState
 2234              		.cfi_endproc
 2235              	.LFE72:
 2237              		.section	.text.Setup0_Process,"ax",%progbits
 2238              		.align	1
 2239              		.global	Setup0_Process
 2240              		.syntax unified
 2241              		.thumb
 2242              		.thumb_func
 2243              		.fpu softvfp
 2245              	Setup0_Process:
 2246              	.LFB69:
 863:usb_driver/Src/usb_core.c **** 
 2247              		.loc 1 863 1 view -0
 2248              		.cfi_startproc
 2249              		@ args = 0, pretend = 0, frame = 0
 2250              		@ frame_needed = 0, uses_anonymous_args = 0
 2251 0000 70B5     		push	{r4, r5, r6, lr}
 2252              	.LCFI16:
 2253              		.cfi_def_cfa_offset 16
 2254              		.cfi_offset 4, -16
 2255              		.cfi_offset 5, -12
 2256              		.cfi_offset 6, -8
 2257              		.cfi_offset 14, -4
 865:usb_driver/Src/usb_core.c ****   {
 2258              		.loc 1 865 3 view .LVU690
 870:usb_driver/Src/usb_core.c ****   
 2259              		.loc 1 870 3 view .LVU691
 2260              	.LVL192:
 872:usb_driver/Src/usb_core.c **** 
 2261              		.loc 1 872 3 view .LVU692
 872:usb_driver/Src/usb_core.c **** 
 2262              		.loc 1 872 34 is_stmt 0 view .LVU693
 2263 0002 1C4B     		ldr	r3, .L195
 2264 0004 D3F8502C 		ldr	r2, [r3, #3152]
 2265 0008 92B2     		uxth	r2, r2
 2266 000a 1B4B     		ldr	r3, .L195+4
 2267 000c 1344     		add	r3, r3, r2
 2268 000e 5B00     		lsls	r3, r3, #1
 2269 0010 1B88     		ldrh	r3, [r3]
 874:usb_driver/Src/usb_core.c ****   {
 2270              		.loc 1 874 3 is_stmt 1 view .LVU694
 874:usb_driver/Src/usb_core.c ****   {
 2271              		.loc 1 874 19 is_stmt 0 view .LVU695
 2272 0012 1A4A     		ldr	r2, .L195+8
 2273 0014 1268     		ldr	r2, [r2]
 2274 0016 117A     		ldrb	r1, [r2, #8]	@ zero_extendqisi2
 874:usb_driver/Src/usb_core.c ****   {
 2275              		.loc 1 874 6 view .LVU696
 2276 0018 0929     		cmp	r1, #9
 2277 001a 0AD1     		bne	.L194
 2278              	.L190:
 886:usb_driver/Src/usb_core.c ****   if (pInformation->USBwLength == 0)
 2279              		.loc 1 886 3 is_stmt 1 view .LVU697
ARM GAS  /tmp/ccIB1023.s 			page 68


 886:usb_driver/Src/usb_core.c ****   if (pInformation->USBwLength == 0)
 2280              		.loc 1 886 15 is_stmt 0 view .LVU698
 2281 001c 174B     		ldr	r3, .L195+8
 2282 001e 1B68     		ldr	r3, [r3]
 886:usb_driver/Src/usb_core.c ****   if (pInformation->USBwLength == 0)
 2283              		.loc 1 886 30 view .LVU699
 2284 0020 0122     		movs	r2, #1
 2285 0022 1A72     		strb	r2, [r3, #8]
 887:usb_driver/Src/usb_core.c ****   {
 2286              		.loc 1 887 3 is_stmt 1 view .LVU700
 887:usb_driver/Src/usb_core.c ****   {
 2287              		.loc 1 887 21 is_stmt 0 view .LVU701
 2288 0024 DB88     		ldrh	r3, [r3, #6]
 887:usb_driver/Src/usb_core.c ****   {
 2289              		.loc 1 887 6 view .LVU702
 2290 0026 13BB     		cbnz	r3, .L191
 890:usb_driver/Src/usb_core.c ****   }
 2291              		.loc 1 890 5 is_stmt 1 view .LVU703
 2292 0028 FFF7FEFF 		bl	NoData_Setup0
 2293              	.LVL193:
 2294              	.L192:
 897:usb_driver/Src/usb_core.c **** }
 2295              		.loc 1 897 3 view .LVU704
 897:usb_driver/Src/usb_core.c **** }
 2296              		.loc 1 897 10 is_stmt 0 view .LVU705
 2297 002c FFF7FEFF 		bl	Post0_Process
 2298              	.LVL194:
 898:usb_driver/Src/usb_core.c **** 
 2299              		.loc 1 898 1 view .LVU706
 2300 0030 70BD     		pop	{r4, r5, r6, pc}
 2301              	.L194:
 2302 0032 5B00     		lsls	r3, r3, #1
 2303 0034 03F18043 		add	r3, r3, #1073741824
 2304 0038 03F5C043 		add	r3, r3, #24576
 876:usb_driver/Src/usb_core.c ****     pInformation->USBbRequest = *pBuf.b++; /* bRequest */
 2305              		.loc 1 876 5 is_stmt 1 view .LVU707
 876:usb_driver/Src/usb_core.c ****     pInformation->USBbRequest = *pBuf.b++; /* bRequest */
 2306              		.loc 1 876 45 is_stmt 0 view .LVU708
 2307 003c 1C46     		mov	r4, r3
 876:usb_driver/Src/usb_core.c ****     pInformation->USBbRequest = *pBuf.b++; /* bRequest */
 2308              		.loc 1 876 38 view .LVU709
 2309 003e 14F8011B 		ldrb	r1, [r4], #1	@ zero_extendqisi2
 876:usb_driver/Src/usb_core.c ****     pInformation->USBbRequest = *pBuf.b++; /* bRequest */
 2310              		.loc 1 876 36 view .LVU710
 2311 0042 1170     		strb	r1, [r2]
 877:usb_driver/Src/usb_core.c ****     pBuf.w += offset;  /* word not accessed because of 32 bits addressing */
 2312              		.loc 1 877 5 is_stmt 1 view .LVU711
 877:usb_driver/Src/usb_core.c ****     pBuf.w += offset;  /* word not accessed because of 32 bits addressing */
 2313              		.loc 1 877 17 is_stmt 0 view .LVU712
 2314 0044 0D4D     		ldr	r5, .L195+8
 2315 0046 2A68     		ldr	r2, [r5]
 877:usb_driver/Src/usb_core.c ****     pBuf.w += offset;  /* word not accessed because of 32 bits addressing */
 2316              		.loc 1 877 33 view .LVU713
 2317 0048 5B78     		ldrb	r3, [r3, #1]	@ zero_extendqisi2
 877:usb_driver/Src/usb_core.c ****     pBuf.w += offset;  /* word not accessed because of 32 bits addressing */
 2318              		.loc 1 877 31 view .LVU714
 2319 004a 5370     		strb	r3, [r2, #1]
ARM GAS  /tmp/ccIB1023.s 			page 69


 878:usb_driver/Src/usb_core.c ****     pInformation->USBwValue = ByteSwap(*pBuf.w++); /* wValue */
 2320              		.loc 1 878 5 is_stmt 1 view .LVU715
 879:usb_driver/Src/usb_core.c ****     pBuf.w += offset;  /* word not accessed because of 32 bits addressing */
 2321              		.loc 1 879 5 view .LVU716
 879:usb_driver/Src/usb_core.c ****     pBuf.w += offset;  /* word not accessed because of 32 bits addressing */
 2322              		.loc 1 879 17 is_stmt 0 view .LVU717
 2323 004c 2E68     		ldr	r6, [r5]
 879:usb_driver/Src/usb_core.c ****     pBuf.w += offset;  /* word not accessed because of 32 bits addressing */
 2324              		.loc 1 879 31 view .LVU718
 2325 004e B4F80300 		ldrh	r0, [r4, #3]
 2326 0052 FFF7FEFF 		bl	ByteSwap
 2327              	.LVL195:
 879:usb_driver/Src/usb_core.c ****     pBuf.w += offset;  /* word not accessed because of 32 bits addressing */
 2328              		.loc 1 879 29 view .LVU719
 2329 0056 7080     		strh	r0, [r6, #2]	@ movhi
 880:usb_driver/Src/usb_core.c ****     pInformation->USBwIndex  = ByteSwap(*pBuf.w++); /* wIndex */
 2330              		.loc 1 880 5 is_stmt 1 view .LVU720
 881:usb_driver/Src/usb_core.c ****     pBuf.w += offset;  /* word not accessed because of 32 bits addressing */
 2331              		.loc 1 881 5 view .LVU721
 881:usb_driver/Src/usb_core.c ****     pBuf.w += offset;  /* word not accessed because of 32 bits addressing */
 2332              		.loc 1 881 17 is_stmt 0 view .LVU722
 2333 0058 2E68     		ldr	r6, [r5]
 881:usb_driver/Src/usb_core.c ****     pBuf.w += offset;  /* word not accessed because of 32 bits addressing */
 2334              		.loc 1 881 32 view .LVU723
 2335 005a B4F80700 		ldrh	r0, [r4, #7]
 2336 005e FFF7FEFF 		bl	ByteSwap
 2337              	.LVL196:
 881:usb_driver/Src/usb_core.c ****     pBuf.w += offset;  /* word not accessed because of 32 bits addressing */
 2338              		.loc 1 881 30 view .LVU724
 2339 0062 B080     		strh	r0, [r6, #4]	@ movhi
 882:usb_driver/Src/usb_core.c ****     pInformation->USBwLength = *pBuf.w; /* wLength */
 2340              		.loc 1 882 5 is_stmt 1 view .LVU725
 883:usb_driver/Src/usb_core.c ****   }
 2341              		.loc 1 883 5 view .LVU726
 883:usb_driver/Src/usb_core.c ****   }
 2342              		.loc 1 883 17 is_stmt 0 view .LVU727
 2343 0064 2B68     		ldr	r3, [r5]
 883:usb_driver/Src/usb_core.c ****   }
 2344              		.loc 1 883 32 view .LVU728
 2345 0066 B4F80B20 		ldrh	r2, [r4, #11]
 883:usb_driver/Src/usb_core.c ****   }
 2346              		.loc 1 883 30 view .LVU729
 2347 006a DA80     		strh	r2, [r3, #6]	@ movhi
 2348 006c D6E7     		b	.L190
 2349              	.L191:
 895:usb_driver/Src/usb_core.c ****   }
 2350              		.loc 1 895 5 is_stmt 1 view .LVU730
 2351 006e FFF7FEFF 		bl	Data_Setup0
 2352              	.LVL197:
 2353 0072 DBE7     		b	.L192
 2354              	.L196:
 2355              		.align	2
 2356              	.L195:
 2357 0074 00500040 		.word	1073762304
 2358 0078 04300020 		.word	536883204
 2359 007c 00000000 		.word	pInformation
 2360              		.cfi_endproc
ARM GAS  /tmp/ccIB1023.s 			page 70


 2361              	.LFE69:
 2363              		.section	.text.Out0_Process,"ax",%progbits
 2364              		.align	1
 2365              		.global	Out0_Process
 2366              		.syntax unified
 2367              		.thumb
 2368              		.thumb_func
 2369              		.fpu softvfp
 2371              	Out0_Process:
 2372              	.LFB71:
 948:usb_driver/Src/usb_core.c ****   uint32_t ControlState = pInformation->ControlState;
 2373              		.loc 1 948 1 view -0
 2374              		.cfi_startproc
 2375              		@ args = 0, pretend = 0, frame = 0
 2376              		@ frame_needed = 0, uses_anonymous_args = 0
 2377 0000 08B5     		push	{r3, lr}
 2378              	.LCFI17:
 2379              		.cfi_def_cfa_offset 8
 2380              		.cfi_offset 3, -8
 2381              		.cfi_offset 14, -4
 949:usb_driver/Src/usb_core.c **** 
 2382              		.loc 1 949 3 view .LVU732
 949:usb_driver/Src/usb_core.c **** 
 2383              		.loc 1 949 39 is_stmt 0 view .LVU733
 2384 0002 124B     		ldr	r3, .L206
 2385 0004 1B68     		ldr	r3, [r3]
 2386 0006 1B7A     		ldrb	r3, [r3, #8]	@ zero_extendqisi2
 2387              	.LVL198:
 951:usb_driver/Src/usb_core.c ****   {
 2388              		.loc 1 951 3 is_stmt 1 view .LVU734
 951:usb_driver/Src/usb_core.c ****   {
 2389              		.loc 1 951 6 is_stmt 0 view .LVU735
 2390 0008 022B     		cmp	r3, #2
 2391 000a 15D0     		beq	.L201
 951:usb_driver/Src/usb_core.c ****   {
 2392              		.loc 1 951 33 discriminator 1 view .LVU736
 2393 000c 042B     		cmp	r3, #4
 2394 000e 1AD0     		beq	.L202
 956:usb_driver/Src/usb_core.c ****   {
 2395              		.loc 1 956 8 is_stmt 1 view .LVU737
 956:usb_driver/Src/usb_core.c ****   {
 2396              		.loc 1 956 11 is_stmt 0 view .LVU738
 2397 0010 032B     		cmp	r3, #3
 2398 0012 05D0     		beq	.L199
 956:usb_driver/Src/usb_core.c ****   {
 2399              		.loc 1 956 39 discriminator 1 view .LVU739
 2400 0014 052B     		cmp	r3, #5
 2401 0016 03D0     		beq	.L199
 962:usb_driver/Src/usb_core.c ****   {
 2402              		.loc 1 962 8 is_stmt 1 view .LVU740
 962:usb_driver/Src/usb_core.c ****   {
 2403              		.loc 1 962 11 is_stmt 0 view .LVU741
 2404 0018 072B     		cmp	r3, #7
 2405 001a 07D0     		beq	.L205
 972:usb_driver/Src/usb_core.c ****   }
 2406              		.loc 1 972 18 view .LVU742
 2407 001c 0822     		movs	r2, #8
ARM GAS  /tmp/ccIB1023.s 			page 71


 2408 001e 0CE0     		b	.L198
 2409              	.L199:
 958:usb_driver/Src/usb_core.c ****     ControlState = pInformation->ControlState; /* may be changed outside the function */
 2410              		.loc 1 958 5 is_stmt 1 view .LVU743
 2411 0020 FFF7FEFF 		bl	DataStageOut
 2412              	.LVL199:
 959:usb_driver/Src/usb_core.c ****   }
 2413              		.loc 1 959 5 view .LVU744
 959:usb_driver/Src/usb_core.c ****   }
 2414              		.loc 1 959 32 is_stmt 0 view .LVU745
 2415 0024 094B     		ldr	r3, .L206
 2416 0026 1B68     		ldr	r3, [r3]
 2417 0028 1A7A     		ldrb	r2, [r3, #8]	@ zero_extendqisi2
 2418              	.LVL200:
 959:usb_driver/Src/usb_core.c ****   }
 2419              		.loc 1 959 18 view .LVU746
 2420 002a 06E0     		b	.L198
 2421              	.LVL201:
 2422              	.L205:
 964:usb_driver/Src/usb_core.c ****     ControlState = STALLED;
 2423              		.loc 1 964 5 is_stmt 1 view .LVU747
 964:usb_driver/Src/usb_core.c ****     ControlState = STALLED;
 2424              		.loc 1 964 16 is_stmt 0 view .LVU748
 2425 002c 084B     		ldr	r3, .L206+4
 2426              	.LVL202:
 964:usb_driver/Src/usb_core.c ****     ControlState = STALLED;
 2427              		.loc 1 964 16 view .LVU749
 2428 002e 1B68     		ldr	r3, [r3]
 964:usb_driver/Src/usb_core.c ****     ControlState = STALLED;
 2429              		.loc 1 964 6 view .LVU750
 2430 0030 DB68     		ldr	r3, [r3, #12]
 2431 0032 9847     		blx	r3
 2432              	.LVL203:
 965:usb_driver/Src/usb_core.c ****   }
 2433              		.loc 1 965 5 is_stmt 1 view .LVU751
 965:usb_driver/Src/usb_core.c ****   }
 2434              		.loc 1 965 18 is_stmt 0 view .LVU752
 2435 0034 0822     		movs	r2, #8
 2436 0036 00E0     		b	.L198
 2437              	.LVL204:
 2438              	.L201:
 954:usb_driver/Src/usb_core.c ****   }
 2439              		.loc 1 954 18 view .LVU753
 2440 0038 0822     		movs	r2, #8
 2441              	.LVL205:
 2442              	.L198:
 975:usb_driver/Src/usb_core.c **** 
 2443              		.loc 1 975 3 is_stmt 1 view .LVU754
 975:usb_driver/Src/usb_core.c **** 
 2444              		.loc 1 975 15 is_stmt 0 view .LVU755
 2445 003a 044B     		ldr	r3, .L206
 2446 003c 1B68     		ldr	r3, [r3]
 975:usb_driver/Src/usb_core.c **** 
 2447              		.loc 1 975 30 view .LVU756
 2448 003e 1A72     		strb	r2, [r3, #8]
 977:usb_driver/Src/usb_core.c **** }
 2449              		.loc 1 977 3 is_stmt 1 view .LVU757
ARM GAS  /tmp/ccIB1023.s 			page 72


 977:usb_driver/Src/usb_core.c **** }
 2450              		.loc 1 977 10 is_stmt 0 view .LVU758
 2451 0040 FFF7FEFF 		bl	Post0_Process
 2452              	.LVL206:
 978:usb_driver/Src/usb_core.c **** 
 2453              		.loc 1 978 1 view .LVU759
 2454 0044 08BD     		pop	{r3, pc}
 2455              	.LVL207:
 2456              	.L202:
 954:usb_driver/Src/usb_core.c ****   }
 2457              		.loc 1 954 18 view .LVU760
 2458 0046 0822     		movs	r2, #8
 2459 0048 F7E7     		b	.L198
 2460              	.L207:
 2461 004a 00BF     		.align	2
 2462              	.L206:
 2463 004c 00000000 		.word	pInformation
 2464 0050 00000000 		.word	pProperty
 2465              		.cfi_endproc
 2466              	.LFE71:
 2468              		.section	.text.SetDeviceAddress,"ax",%progbits
 2469              		.align	1
 2470              		.global	SetDeviceAddress
 2471              		.syntax unified
 2472              		.thumb
 2473              		.thumb_func
 2474              		.fpu softvfp
 2476              	SetDeviceAddress:
 2477              	.LVL208:
 2478              	.LFB73:
1001:usb_driver/Src/usb_core.c **** 
1002:usb_driver/Src/usb_core.c **** /*******************************************************************************
1003:usb_driver/Src/usb_core.c **** * Function Name  : SetDeviceAddress.
1004:usb_driver/Src/usb_core.c **** * Description    : Set the device and all the used Endpoints addresses.
1005:usb_driver/Src/usb_core.c **** * Input          : - Val: device address.
1006:usb_driver/Src/usb_core.c **** * Output         : None.
1007:usb_driver/Src/usb_core.c **** * Return         : None.
1008:usb_driver/Src/usb_core.c **** *******************************************************************************/
1009:usb_driver/Src/usb_core.c **** void SetDeviceAddress(uint8_t Val)
1010:usb_driver/Src/usb_core.c **** {
 2479              		.loc 1 1010 1 is_stmt 1 view -0
 2480              		.cfi_startproc
 2481              		@ args = 0, pretend = 0, frame = 0
 2482              		@ frame_needed = 0, uses_anonymous_args = 0
 2483              		.loc 1 1010 1 is_stmt 0 view .LVU762
 2484 0000 00B5     		push	{lr}
 2485              	.LCFI18:
 2486              		.cfi_def_cfa_offset 4
 2487              		.cfi_offset 14, -4
1011:usb_driver/Src/usb_core.c ****   uint32_t i;
 2488              		.loc 1 1011 3 is_stmt 1 view .LVU763
1012:usb_driver/Src/usb_core.c ****   uint32_t nEP = Device_Table.Total_Endpoint;
 2489              		.loc 1 1012 3 view .LVU764
 2490              		.loc 1 1012 30 is_stmt 0 view .LVU765
 2491 0002 114B     		ldr	r3, .L212
 2492 0004 93F800E0 		ldrb	lr, [r3]	@ zero_extendqisi2
 2493              	.LVL209:
ARM GAS  /tmp/ccIB1023.s 			page 73


1013:usb_driver/Src/usb_core.c **** 
1014:usb_driver/Src/usb_core.c ****   /* set address in every used endpoint */
1015:usb_driver/Src/usb_core.c ****   for (i = 0; i < nEP; i++)
 2494              		.loc 1 1015 3 is_stmt 1 view .LVU766
 2495              		.loc 1 1015 10 is_stmt 0 view .LVU767
 2496 0008 0021     		movs	r1, #0
 2497              		.loc 1 1015 3 view .LVU768
 2498 000a 14E0     		b	.L209
 2499              	.LVL210:
 2500              	.L210:
1016:usb_driver/Src/usb_core.c ****   {
1017:usb_driver/Src/usb_core.c ****     _SetEPAddress((uint8_t)i, (uint8_t)i);
 2501              		.loc 1 1017 5 is_stmt 1 discriminator 3 view .LVU769
 2502 000c 5FFA81FC 		uxtb	ip, r1
 2503 0010 4FEA8C02 		lsl	r2, ip, #2
 2504 0014 02F18042 		add	r2, r2, #1073741824
 2505 0018 02F5B842 		add	r2, r2, #23552
 2506 001c 1368     		ldr	r3, [r2]
 2507 001e 23F0F003 		bic	r3, r3, #240
 2508 0022 1B05     		lsls	r3, r3, #20
 2509 0024 1B0D     		lsrs	r3, r3, #20
 2510 0026 43F40043 		orr	r3, r3, #32768
 2511 002a 43F08003 		orr	r3, r3, #128
 2512 002e 43EA0C03 		orr	r3, r3, ip
 2513 0032 1360     		str	r3, [r2]
1015:usb_driver/Src/usb_core.c ****   {
 2514              		.loc 1 1015 24 discriminator 3 view .LVU770
1015:usb_driver/Src/usb_core.c ****   {
 2515              		.loc 1 1015 25 is_stmt 0 discriminator 3 view .LVU771
 2516 0034 0131     		adds	r1, r1, #1
 2517              	.LVL211:
 2518              	.L209:
1015:usb_driver/Src/usb_core.c ****   {
 2519              		.loc 1 1015 15 is_stmt 1 discriminator 1 view .LVU772
1015:usb_driver/Src/usb_core.c ****   {
 2520              		.loc 1 1015 3 is_stmt 0 discriminator 1 view .LVU773
 2521 0036 7145     		cmp	r1, lr
 2522 0038 E8D3     		bcc	.L210
1018:usb_driver/Src/usb_core.c ****   } /* for */
1019:usb_driver/Src/usb_core.c ****   _SetDADDR(Val | DADDR_EF); /* set device address and enable function */ 
 2523              		.loc 1 1019 3 is_stmt 1 view .LVU774
 2524 003a 40F08000 		orr	r0, r0, #128
 2525              	.LVL212:
 2526              		.loc 1 1019 3 is_stmt 0 view .LVU775
 2527 003e 034B     		ldr	r3, .L212+4
 2528 0040 C3F84C0C 		str	r0, [r3, #3148]
1020:usb_driver/Src/usb_core.c **** }
 2529              		.loc 1 1020 1 view .LVU776
 2530 0044 5DF804FB 		ldr	pc, [sp], #4
 2531              	.L213:
 2532              		.align	2
 2533              	.L212:
 2534 0048 00000000 		.word	Device_Table
 2535 004c 00500040 		.word	1073762304
 2536              		.cfi_endproc
 2537              	.LFE73:
 2539              		.section	.text.In0_Process,"ax",%progbits
ARM GAS  /tmp/ccIB1023.s 			page 74


 2540              		.align	1
 2541              		.global	In0_Process
 2542              		.syntax unified
 2543              		.thumb
 2544              		.thumb_func
 2545              		.fpu softvfp
 2547              	In0_Process:
 2548              	.LFB70:
 908:usb_driver/Src/usb_core.c ****   uint32_t ControlState = pInformation->ControlState;
 2549              		.loc 1 908 1 is_stmt 1 view -0
 2550              		.cfi_startproc
 2551              		@ args = 0, pretend = 0, frame = 0
 2552              		@ frame_needed = 0, uses_anonymous_args = 0
 2553 0000 08B5     		push	{r3, lr}
 2554              	.LCFI19:
 2555              		.cfi_def_cfa_offset 8
 2556              		.cfi_offset 3, -8
 2557              		.cfi_offset 14, -4
 909:usb_driver/Src/usb_core.c **** 
 2558              		.loc 1 909 3 view .LVU778
 909:usb_driver/Src/usb_core.c **** 
 2559              		.loc 1 909 39 is_stmt 0 view .LVU779
 2560 0002 154B     		ldr	r3, .L223
 2561 0004 1A68     		ldr	r2, [r3]
 2562 0006 137A     		ldrb	r3, [r2, #8]	@ zero_extendqisi2
 2563              	.LVL213:
 911:usb_driver/Src/usb_core.c ****   {
 2564              		.loc 1 911 3 is_stmt 1 view .LVU780
 911:usb_driver/Src/usb_core.c ****   {
 2565              		.loc 1 911 6 is_stmt 0 view .LVU781
 2566 0008 022B     		cmp	r3, #2
 2567 000a 05D0     		beq	.L215
 911:usb_driver/Src/usb_core.c ****   {
 2568              		.loc 1 911 33 discriminator 1 view .LVU782
 2569 000c 042B     		cmp	r3, #4
 2570 000e 03D0     		beq	.L215
 918:usb_driver/Src/usb_core.c ****   {
 2571              		.loc 1 918 8 is_stmt 1 view .LVU783
 918:usb_driver/Src/usb_core.c ****   {
 2572              		.loc 1 918 11 is_stmt 0 view .LVU784
 2573 0010 062B     		cmp	r3, #6
 2574 0012 0CD0     		beq	.L221
 932:usb_driver/Src/usb_core.c ****   }
 2575              		.loc 1 932 18 view .LVU785
 2576 0014 0822     		movs	r2, #8
 2577 0016 04E0     		b	.L217
 2578              	.L215:
 913:usb_driver/Src/usb_core.c ****     /* ControlState may be changed outside the function */
 2579              		.loc 1 913 5 is_stmt 1 view .LVU786
 2580 0018 FFF7FEFF 		bl	DataStageIn
 2581              	.LVL214:
 915:usb_driver/Src/usb_core.c ****   }
 2582              		.loc 1 915 5 view .LVU787
 915:usb_driver/Src/usb_core.c ****   }
 2583              		.loc 1 915 32 is_stmt 0 view .LVU788
 2584 001c 0E4B     		ldr	r3, .L223
 2585 001e 1B68     		ldr	r3, [r3]
ARM GAS  /tmp/ccIB1023.s 			page 75


 2586 0020 1A7A     		ldrb	r2, [r3, #8]	@ zero_extendqisi2
 2587              	.LVL215:
 2588              	.L217:
 935:usb_driver/Src/usb_core.c **** 
 2589              		.loc 1 935 3 is_stmt 1 view .LVU789
 935:usb_driver/Src/usb_core.c **** 
 2590              		.loc 1 935 15 is_stmt 0 view .LVU790
 2591 0022 0D4B     		ldr	r3, .L223
 2592 0024 1B68     		ldr	r3, [r3]
 935:usb_driver/Src/usb_core.c **** 
 2593              		.loc 1 935 30 view .LVU791
 2594 0026 1A72     		strb	r2, [r3, #8]
 937:usb_driver/Src/usb_core.c **** }
 2595              		.loc 1 937 3 is_stmt 1 view .LVU792
 937:usb_driver/Src/usb_core.c **** }
 2596              		.loc 1 937 10 is_stmt 0 view .LVU793
 2597 0028 FFF7FEFF 		bl	Post0_Process
 2598              	.LVL216:
 938:usb_driver/Src/usb_core.c **** 
 2599              		.loc 1 938 1 view .LVU794
 2600 002c 08BD     		pop	{r3, pc}
 2601              	.LVL217:
 2602              	.L221:
 920:usb_driver/Src/usb_core.c ****         (Type_Recipient == (STANDARD_REQUEST | DEVICE_RECIPIENT)))
 2603              		.loc 1 920 5 is_stmt 1 view .LVU795
 920:usb_driver/Src/usb_core.c ****         (Type_Recipient == (STANDARD_REQUEST | DEVICE_RECIPIENT)))
 2604              		.loc 1 920 22 is_stmt 0 view .LVU796
 2605 002e 5378     		ldrb	r3, [r2, #1]	@ zero_extendqisi2
 2606              	.LVL218:
 920:usb_driver/Src/usb_core.c ****         (Type_Recipient == (STANDARD_REQUEST | DEVICE_RECIPIENT)))
 2607              		.loc 1 920 8 view .LVU797
 2608 0030 052B     		cmp	r3, #5
 2609 0032 05D0     		beq	.L222
 2610              	.LVL219:
 2611              	.L218:
 926:usb_driver/Src/usb_core.c ****     ControlState = STALLED;
 2612              		.loc 1 926 5 is_stmt 1 view .LVU798
 926:usb_driver/Src/usb_core.c ****     ControlState = STALLED;
 2613              		.loc 1 926 16 is_stmt 0 view .LVU799
 2614 0034 094B     		ldr	r3, .L223+4
 2615 0036 1B68     		ldr	r3, [r3]
 926:usb_driver/Src/usb_core.c ****     ControlState = STALLED;
 2616              		.loc 1 926 6 view .LVU800
 2617 0038 9B68     		ldr	r3, [r3, #8]
 2618 003a 9847     		blx	r3
 2619              	.LVL220:
 927:usb_driver/Src/usb_core.c ****   }
 2620              		.loc 1 927 5 is_stmt 1 view .LVU801
 927:usb_driver/Src/usb_core.c ****   }
 2621              		.loc 1 927 18 is_stmt 0 view .LVU802
 2622 003c 0822     		movs	r2, #8
 2623 003e F0E7     		b	.L217
 2624              	.LVL221:
 2625              	.L222:
 921:usb_driver/Src/usb_core.c ****     {
 2626              		.loc 1 921 10 discriminator 1 view .LVU803
 2627 0040 1378     		ldrb	r3, [r2]	@ zero_extendqisi2
ARM GAS  /tmp/ccIB1023.s 			page 76


 920:usb_driver/Src/usb_core.c ****         (Type_Recipient == (STANDARD_REQUEST | DEVICE_RECIPIENT)))
 2628              		.loc 1 920 52 discriminator 1 view .LVU804
 2629 0042 13F07F0F 		tst	r3, #127
 2630 0046 F5D1     		bne	.L218
 923:usb_driver/Src/usb_core.c ****       pUser_Standard_Requests->User_SetDeviceAddress();
 2631              		.loc 1 923 7 is_stmt 1 view .LVU805
 2632 0048 D078     		ldrb	r0, [r2, #3]	@ zero_extendqisi2
 2633 004a FFF7FEFF 		bl	SetDeviceAddress
 2634              	.LVL222:
 924:usb_driver/Src/usb_core.c ****     }
 2635              		.loc 1 924 7 view .LVU806
 924:usb_driver/Src/usb_core.c ****     }
 2636              		.loc 1 924 30 is_stmt 0 view .LVU807
 2637 004e 044B     		ldr	r3, .L223+8
 2638 0050 1B68     		ldr	r3, [r3]
 2639 0052 1B6A     		ldr	r3, [r3, #32]
 924:usb_driver/Src/usb_core.c ****     }
 2640              		.loc 1 924 7 view .LVU808
 2641 0054 9847     		blx	r3
 2642              	.LVL223:
 2643 0056 EDE7     		b	.L218
 2644              	.L224:
 2645              		.align	2
 2646              	.L223:
 2647 0058 00000000 		.word	pInformation
 2648 005c 00000000 		.word	pProperty
 2649 0060 00000000 		.word	pUser_Standard_Requests
 2650              		.cfi_endproc
 2651              	.LFE70:
 2653              		.section	.text.NOP_Process,"ax",%progbits
 2654              		.align	1
 2655              		.global	NOP_Process
 2656              		.syntax unified
 2657              		.thumb
 2658              		.thumb_func
 2659              		.fpu softvfp
 2661              	NOP_Process:
 2662              	.LFB74:
1021:usb_driver/Src/usb_core.c **** 
1022:usb_driver/Src/usb_core.c **** /*******************************************************************************
1023:usb_driver/Src/usb_core.c **** * Function Name  : NOP_Process
1024:usb_driver/Src/usb_core.c **** * Description    : No operation function.
1025:usb_driver/Src/usb_core.c **** * Input          : None.
1026:usb_driver/Src/usb_core.c **** * Output         : None.
1027:usb_driver/Src/usb_core.c **** * Return         : None.
1028:usb_driver/Src/usb_core.c **** *******************************************************************************/
1029:usb_driver/Src/usb_core.c **** void NOP_Process(void)
1030:usb_driver/Src/usb_core.c **** {
 2663              		.loc 1 1030 1 is_stmt 1 view -0
 2664              		.cfi_startproc
 2665              		@ args = 0, pretend = 0, frame = 0
 2666              		@ frame_needed = 0, uses_anonymous_args = 0
 2667              		@ link register save eliminated.
1031:usb_driver/Src/usb_core.c **** }
 2668              		.loc 1 1031 1 view .LVU810
 2669 0000 7047     		bx	lr
 2670              		.cfi_endproc
ARM GAS  /tmp/ccIB1023.s 			page 77


 2671              	.LFE74:
 2673              		.global	Data_Mul_MaxPacketSize
 2674              		.global	StatusInfo
 2675              		.section	.bss.Data_Mul_MaxPacketSize,"aw",%nobits
 2676              		.set	.LANCHOR1,. + 0
 2679              	Data_Mul_MaxPacketSize:
 2680 0000 00       		.space	1
 2681              		.section	.bss.StatusInfo,"aw",%nobits
 2682              		.align	2
 2683              		.set	.LANCHOR0,. + 0
 2686              	StatusInfo:
 2687 0000 0000     		.space	2
 2688              		.text
 2689              	.Letext0:
 2690              		.file 2 "/usr/lib/gcc/arm-none-eabi/10.3.1/include/stdint.h"
 2691              		.file 3 "usb_driver/Inc/usb_type.h"
 2692              		.file 4 "usb_driver/Inc/usb_def.h"
 2693              		.file 5 "usb_driver/Inc/usb_core.h"
 2694              		.file 6 "usb_driver/Inc/usb_init.h"
 2695              		.file 7 "usb_driver/Inc/usb_regs.h"
 2696              		.file 8 "usb_driver/Inc/usb_mem.h"
ARM GAS  /tmp/ccIB1023.s 			page 78

